Archive member included because of file (symbol)

D:\oxygine-sound\dependencies\openalext\lib\android\libopenal.a(alBuffer.o)
                              release\openalext_platform.os (alDeleteBuffers)
D:\oxygine-sound\dependencies\openalext\lib\android\libopenal.a(alError.o)
                              release\openalext_platform.os (alGetError)
D:\oxygine-sound\dependencies\openalext\lib\android\libopenal.a(alSource.o)
                              release\openalext_platform.os (alDeleteSources)
D:\oxygine-sound\dependencies\openalext\lib\android\libopenal.a(alThunk.o)
                              D:\oxygine-sound\dependencies\openalext\lib\android\libopenal.a(alBuffer.o) (NewThunkEntry)
D:\oxygine-sound\dependencies\openalext\lib\android\libopenal.a(ALc.o)
                              release\openalext_platform.os (alcSuspendContext)
D:\oxygine-sound\dependencies\openalext\lib\android\libopenal.a(alcConfig.o)
                              D:\oxygine-sound\dependencies\openalext\lib\android\libopenal.a(ALc.o) (ReadALConfig)
D:\oxygine-sound\dependencies\openalext\lib\android\libopenal.a(alcReverb.o)
                              D:\oxygine-sound\dependencies\openalext\lib\android\libopenal.a(ALc.o) (EmulateEAXReverb)
D:\oxygine-sound\dependencies\openalext\lib\android\libopenal.a(ALu.o)
                              D:\oxygine-sound\dependencies\openalext\lib\android\libopenal.a(alSource.o) (CalcNonAttnSourceParams)
D:\oxygine-sound\dependencies\openalext\lib\android\libopenal.a(bs2b.o)
                              D:\oxygine-sound\dependencies\openalext\lib\android\libopenal.a(ALc.o) (bs2b_set_level)
D:\oxygine-sound\dependencies\openalext\lib\android\libopenal.a(helpers.o)
                              D:\oxygine-sound\dependencies\openalext\lib\android\libopenal.a(ALc.o) (InitializeCriticalSection)
D:\oxygine-sound\dependencies\openalext\lib\android\libopenal.a(hrtf.o)
                              D:\oxygine-sound\dependencies\openalext\lib\android\libopenal.a(ALu.o) (CalcHrtfDelta)
D:\oxygine-sound\dependencies\openalext\lib\android\libopenal.a(mixer.o)
                              D:\oxygine-sound\dependencies\openalext\lib\android\libopenal.a(ALu.o) (SelectMixer)
D:\oxygine-sound\dependencies\openalext\lib\android\libopenal.a(panning.o)
                              D:\oxygine-sound\dependencies\openalext\lib\android\libopenal.a(alcReverb.o) (aluCart2LUTpos)
D:\oxygine-sound\dependencies\openalext\lib\android\libopenal.a(opensl.o)
                              D:\oxygine-sound\dependencies\openalext\lib\android\libopenal.a(ALc.o) (alc_opensl_init)
D:\oxygine-sound\dependencies\openalext\lib\android\libopenal.a(null.o)
                              D:\oxygine-sound\dependencies\openalext\lib\android\libopenal.a(ALc.o) (alc_null_init)
D:\oxygine-sound\dependencies\openalext\lib\android\libopenal.a(loopback.o)
                              D:\oxygine-sound\dependencies\openalext\lib\android\libopenal.a(ALc.o) (alc_loopback_init)
D:\oxygine-sound\dependencies\openalext\lib\android\libopenal.a(alAuxEffectSlot.o)
                              D:\oxygine-sound\dependencies\openalext\lib\android\libopenal.a(ALc.o) (alDeleteAuxiliaryEffectSlots)
D:\oxygine-sound\dependencies\openalext\lib\android\libopenal.a(alEffect.o)
                              D:\oxygine-sound\dependencies\openalext\lib\android\libopenal.a(ALc.o) (alDeleteEffects)
D:\oxygine-sound\dependencies\openalext\lib\android\libopenal.a(alExtension.o)
                              D:\oxygine-sound\dependencies\openalext\lib\android\libopenal.a(ALc.o) (alIsExtensionPresent)
D:\oxygine-sound\dependencies\openalext\lib\android\libopenal.a(alFilter.o)
                              D:\oxygine-sound\dependencies\openalext\lib\android\libopenal.a(ALc.o) (alDeleteFilters)
D:\oxygine-sound\dependencies\openalext\lib\android\libopenal.a(alListener.o)
                              D:\oxygine-sound\dependencies\openalext\lib\android\libopenal.a(ALc.o) (alListenerf)
D:\oxygine-sound\dependencies\openalext\lib\android\libopenal.a(alState.o)
                              D:\oxygine-sound\dependencies\openalext\lib\android\libopenal.a(ALc.o) (alEnable)
D:\oxygine-sound\dependencies\openalext\lib\android\libopenal.a(alcDedicated.o)
                              D:\oxygine-sound\dependencies\openalext\lib\android\libopenal.a(alAuxEffectSlot.o) (DedicatedCreate)
D:\oxygine-sound\dependencies\openalext\lib\android\libopenal.a(alcEcho.o)
                              D:\oxygine-sound\dependencies\openalext\lib\android\libopenal.a(alAuxEffectSlot.o) (EchoCreate)
D:\oxygine-sound\dependencies\openalext\lib\android\libopenal.a(alcModulator.o)
                              D:\oxygine-sound\dependencies\openalext\lib\android\libopenal.a(alAuxEffectSlot.o) (ModulatorCreate)
D:\oxygine-sound\dependencies\openalext\lib\android\libopenal.a(alcThread.o)
                              D:\oxygine-sound\dependencies\openalext\lib\android\libopenal.a(null.o) (StartThread)
d:/android/android-ndk-r8e/toolchains/arm-linux-androideabi-4.4.3/prebuilt/windows/bin/../lib/gcc/arm-linux-androideabi/4.4.3\libgcc.a(_udivsi3.o)
                              D:\oxygine-sound\dependencies\openalext\lib\android\libopenal.a(alBuffer.o) (__aeabi_uidiv)
d:/android/android-ndk-r8e/toolchains/arm-linux-androideabi-4.4.3/prebuilt/windows/bin/../lib/gcc/arm-linux-androideabi/4.4.3\libgcc.a(_divsi3.o)
                              D:\oxygine-sound\dependencies\openalext\lib\android\libopenal.a(alBuffer.o) (__aeabi_idiv)
d:/android/android-ndk-r8e/toolchains/arm-linux-androideabi-4.4.3/prebuilt/windows/bin/../lib/gcc/arm-linux-androideabi/4.4.3\libgcc.a(_aeabi_ldivmod.o)
                              D:\oxygine-sound\dependencies\openalext\lib\android\libopenal.a(mixer.o) (__aeabi_ldivmod)
d:/android/android-ndk-r8e/toolchains/arm-linux-androideabi-4.4.3/prebuilt/windows/bin/../lib/gcc/arm-linux-androideabi/4.4.3\libgcc.a(_aeabi_uldivmod.o)
                              D:\oxygine-sound\dependencies\openalext\lib\android\libopenal.a(ALc.o) (__aeabi_uldivmod)
d:/android/android-ndk-r8e/toolchains/arm-linux-androideabi-4.4.3/prebuilt/windows/bin/../lib/gcc/arm-linux-androideabi/4.4.3\libgcc.a(_dvmd_lnx.o)
                              d:/android/android-ndk-r8e/toolchains/arm-linux-androideabi-4.4.3/prebuilt/windows/bin/../lib/gcc/arm-linux-androideabi/4.4.3\libgcc.a(_udivsi3.o) (__div0)
d:/android/android-ndk-r8e/toolchains/arm-linux-androideabi-4.4.3/prebuilt/windows/bin/../lib/gcc/arm-linux-androideabi/4.4.3\libgcc.a(bpabi.o)
                              d:/android/android-ndk-r8e/toolchains/arm-linux-androideabi-4.4.3/prebuilt/windows/bin/../lib/gcc/arm-linux-androideabi/4.4.3\libgcc.a(_aeabi_uldivmod.o) (__gnu_uldivmod_helper)
d:/android/android-ndk-r8e/toolchains/arm-linux-androideabi-4.4.3/prebuilt/windows/bin/../lib/gcc/arm-linux-androideabi/4.4.3\libgcc.a(unwind-arm.o)
                              D:\oxygine-sound\dependencies\openalext\lib\android\libopenal.a(alBuffer.o) (__aeabi_unwind_cpp_pr0)
d:/android/android-ndk-r8e/toolchains/arm-linux-androideabi-4.4.3/prebuilt/windows/bin/../lib/gcc/arm-linux-androideabi/4.4.3\libgcc.a(libunwind.o)
                              d:/android/android-ndk-r8e/toolchains/arm-linux-androideabi-4.4.3/prebuilt/windows/bin/../lib/gcc/arm-linux-androideabi/4.4.3\libgcc.a(unwind-arm.o) (restore_core_regs)
d:/android/android-ndk-r8e/toolchains/arm-linux-androideabi-4.4.3/prebuilt/windows/bin/../lib/gcc/arm-linux-androideabi/4.4.3\libgcc.a(pr-support.o)
                              d:/android/android-ndk-r8e/toolchains/arm-linux-androideabi-4.4.3/prebuilt/windows/bin/../lib/gcc/arm-linux-androideabi/4.4.3\libgcc.a(unwind-arm.o) (__gnu_unwind_execute)
d:/android/android-ndk-r8e/toolchains/arm-linux-androideabi-4.4.3/prebuilt/windows/bin/../lib/gcc/arm-linux-androideabi/4.4.3\libgcc.a(_divdi3.o)
                              d:/android/android-ndk-r8e/toolchains/arm-linux-androideabi-4.4.3/prebuilt/windows/bin/../lib/gcc/arm-linux-androideabi/4.4.3\libgcc.a(bpabi.o) (__divdi3)
d:/android/android-ndk-r8e/toolchains/arm-linux-androideabi-4.4.3/prebuilt/windows/bin/../lib/gcc/arm-linux-androideabi/4.4.3\libgcc.a(_udivdi3.o)
                              d:/android/android-ndk-r8e/toolchains/arm-linux-androideabi-4.4.3/prebuilt/windows/bin/../lib/gcc/arm-linux-androideabi/4.4.3\libgcc.a(bpabi.o) (__udivdi3)

Allocating common symbols
Common symbol       size              file

DisabledEffects     0x5               D:\oxygine-sound\dependencies\openalext\lib\android\libopenal.a(alEffect.o)
LogFile             0x4               D:\oxygine-sound\dependencies\openalext\lib\android\libopenal.a(ALc.o)
RTPrioLevel         0x4               D:\oxygine-sound\dependencies\openalext\lib\android\libopenal.a(ALc.o)

Discarded input sections

 .text          0x00000000        0x0 d:/android/android-ndk-r8e/platforms/android-9/arch-arm/usr/lib/crtbegin_so.o
 .bss           0x00000000        0x0 d:/android/android-ndk-r8e/platforms/android-9/arch-arm/usr/lib/crtbegin_so.o
 .note.GNU-stack
                0x00000000        0x0 d:/android/android-ndk-r8e/platforms/android-9/arch-arm/usr/lib/crtbegin_so.o
 .text          0x00000000        0x0 release\openalext_platform.os
 .data          0x00000000        0x0 release\openalext_platform.os
 .bss           0x00000000        0x0 release\openalext_platform.os
 .note.GNU-stack
                0x00000000        0x0 release\openalext_platform.os
 .text          0x00000000        0x0 release\openalext.os
 .data          0x00000000        0x0 release\openalext.os
 .bss           0x00000000        0x0 release\openalext.os
 .note.GNU-stack
                0x00000000        0x0 release\openalext.os
 .text          0x00000000        0x0 release\openalext_register.os
 .data          0x00000000        0x0 release\openalext_register.os
 .bss           0x00000000        0x0 release\openalext_register.os
 .text._Z20openalextRegisterExtv
                0x00000000        0x0 release\openalext_register.os
 .note.GNU-stack
                0x00000000        0x0 release\openalext_register.os
 .text          0x00000000        0x0 D:\oxygine-sound\dependencies\openalext\lib\android\libopenal.a(alBuffer.o)
 .data          0x00000000        0x0 D:\oxygine-sound\dependencies\openalext\lib\android\libopenal.a(alBuffer.o)
 .bss           0x00000000        0x0 D:\oxygine-sound\dependencies\openalext\lib\android\libopenal.a(alBuffer.o)
 .ARM.extab.text.EncodeMuLaw
                0x00000000        0x0 D:\oxygine-sound\dependencies\openalext\lib\android\libopenal.a(alBuffer.o)
 .ARM.extab.text.EncodeALaw
                0x00000000        0x0 D:\oxygine-sound\dependencies\openalext\lib\android\libopenal.a(alBuffer.o)
 .ARM.extab.text.DecodeIMA4Block
                0x00000000        0x0 D:\oxygine-sound\dependencies\openalext\lib\android\libopenal.a(alBuffer.o)
 .ARM.extab.text.EncodeIMA4Block
                0x00000000        0x0 D:\oxygine-sound\dependencies\openalext\lib\android\libopenal.a(alBuffer.o)
 .ARM.extab.text.DecodeByte3
                0x00000000        0x0 D:\oxygine-sound\dependencies\openalext\lib\android\libopenal.a(alBuffer.o)
 .ARM.extab.text.DecodeUByte3
                0x00000000        0x0 D:\oxygine-sound\dependencies\openalext\lib\android\libopenal.a(alBuffer.o)
 .ARM.extab.text.EncodeByte3
                0x00000000        0x0 D:\oxygine-sound\dependencies\openalext\lib\android\libopenal.a(alBuffer.o)
 .ARM.extab.text.EncodeUByte3
                0x00000000        0x0 D:\oxygine-sound\dependencies\openalext\lib\android\libopenal.a(alBuffer.o)
 .ARM.extab.text.alDeleteBuffers
                0x00000000        0x0 D:\oxygine-sound\dependencies\openalext\lib\android\libopenal.a(alBuffer.o)
 .ARM.extab.text.alGenBuffers
                0x00000000        0x0 D:\oxygine-sound\dependencies\openalext\lib\android\libopenal.a(alBuffer.o)
 .ARM.extab.text.alIsBuffer
                0x00000000        0x0 D:\oxygine-sound\dependencies\openalext\lib\android\libopenal.a(alBuffer.o)
 .ARM.extab.text.alIsBufferFormatSupportedSOFT
                0x00000000        0x0 D:\oxygine-sound\dependencies\openalext\lib\android\libopenal.a(alBuffer.o)
 .ARM.extab.text.alBufferf
                0x00000000        0x0 D:\oxygine-sound\dependencies\openalext\lib\android\libopenal.a(alBuffer.o)
 .ARM.extab.text.alBuffer3f
                0x00000000        0x0 D:\oxygine-sound\dependencies\openalext\lib\android\libopenal.a(alBuffer.o)
 .ARM.extab.text.alBufferfv
                0x00000000        0x0 D:\oxygine-sound\dependencies\openalext\lib\android\libopenal.a(alBuffer.o)
 .ARM.extab.text.alBufferi
                0x00000000        0x0 D:\oxygine-sound\dependencies\openalext\lib\android\libopenal.a(alBuffer.o)
 .ARM.extab.text.alBuffer3i
                0x00000000        0x0 D:\oxygine-sound\dependencies\openalext\lib\android\libopenal.a(alBuffer.o)
 .ARM.extab.text.alBufferiv
                0x00000000        0x0 D:\oxygine-sound\dependencies\openalext\lib\android\libopenal.a(alBuffer.o)
 .ARM.extab.text.alGetBufferf
                0x00000000        0x0 D:\oxygine-sound\dependencies\openalext\lib\android\libopenal.a(alBuffer.o)
 .ARM.extab.text.alGetBuffer3f
                0x00000000        0x0 D:\oxygine-sound\dependencies\openalext\lib\android\libopenal.a(alBuffer.o)
 .ARM.extab.text.alGetBufferfv
                0x00000000        0x0 D:\oxygine-sound\dependencies\openalext\lib\android\libopenal.a(alBuffer.o)
 .ARM.extab.text.alGetBuffer3i
                0x00000000        0x0 D:\oxygine-sound\dependencies\openalext\lib\android\libopenal.a(alBuffer.o)
 .ARM.extab.text.BytesFromUserFmt
                0x00000000        0x0 D:\oxygine-sound\dependencies\openalext\lib\android\libopenal.a(alBuffer.o)
 .ARM.extab.text.ChannelsFromUserFmt
                0x00000000        0x0 D:\oxygine-sound\dependencies\openalext\lib\android\libopenal.a(alBuffer.o)
 .ARM.extab.text.BytesFromFmt
                0x00000000        0x0 D:\oxygine-sound\dependencies\openalext\lib\android\libopenal.a(alBuffer.o)
 .ARM.extab.text.ChannelsFromFmt
                0x00000000        0x0 D:\oxygine-sound\dependencies\openalext\lib\android\libopenal.a(alBuffer.o)
 .ARM.extab.text.alGetBufferi
                0x00000000        0x0 D:\oxygine-sound\dependencies\openalext\lib\android\libopenal.a(alBuffer.o)
 .ARM.extab.text.alGetBufferiv
                0x00000000        0x0 D:\oxygine-sound\dependencies\openalext\lib\android\libopenal.a(alBuffer.o)
 .ARM.extab.text.alGetBufferSamplesSOFT
                0x00000000        0x0 D:\oxygine-sound\dependencies\openalext\lib\android\libopenal.a(alBuffer.o)
 .ARM.extab.text.alBufferSubSamplesSOFT
                0x00000000        0x0 D:\oxygine-sound\dependencies\openalext\lib\android\libopenal.a(alBuffer.o)
 .ARM.extab.text.LoadData
                0x00000000        0x0 D:\oxygine-sound\dependencies\openalext\lib\android\libopenal.a(alBuffer.o)
 .ARM.extab.text.alBufferSamplesSOFT
                0x00000000        0x0 D:\oxygine-sound\dependencies\openalext\lib\android\libopenal.a(alBuffer.o)
 .ARM.extab.text.alBufferData
                0x00000000        0x0 D:\oxygine-sound\dependencies\openalext\lib\android\libopenal.a(alBuffer.o)
 .ARM.extab.text.alBufferSubDataSOFT
                0x00000000        0x0 D:\oxygine-sound\dependencies\openalext\lib\android\libopenal.a(alBuffer.o)
 .ARM.extab.text.ReleaseALBuffers
                0x00000000        0x0 D:\oxygine-sound\dependencies\openalext\lib\android\libopenal.a(alBuffer.o)
 .note.GNU-stack
                0x00000000        0x0 D:\oxygine-sound\dependencies\openalext\lib\android\libopenal.a(alBuffer.o)
 .text          0x00000000        0x0 D:\oxygine-sound\dependencies\openalext\lib\android\libopenal.a(alError.o)
 .data          0x00000000        0x0 D:\oxygine-sound\dependencies\openalext\lib\android\libopenal.a(alError.o)
 .ARM.extab.text.alGetError
                0x00000000        0x0 D:\oxygine-sound\dependencies\openalext\lib\android\libopenal.a(alError.o)
 .ARM.extab.text.alSetError
                0x00000000        0x0 D:\oxygine-sound\dependencies\openalext\lib\android\libopenal.a(alError.o)
 .note.GNU-stack
                0x00000000        0x0 D:\oxygine-sound\dependencies\openalext\lib\android\libopenal.a(alError.o)
 .text          0x00000000        0x0 D:\oxygine-sound\dependencies\openalext\lib\android\libopenal.a(alSource.o)
 .bss           0x00000000        0x0 D:\oxygine-sound\dependencies\openalext\lib\android\libopenal.a(alSource.o)
 .ARM.extab.text.LockContext
                0x00000000        0x0 D:\oxygine-sound\dependencies\openalext\lib\android\libopenal.a(alSource.o)
 .ARM.extab.text.UnlockContext
                0x00000000        0x0 D:\oxygine-sound\dependencies\openalext\lib\android\libopenal.a(alSource.o)
 .ARM.extab.text.GetSourceOffset
                0x00000000        0x0 D:\oxygine-sound\dependencies\openalext\lib\android\libopenal.a(alSource.o)
 .ARM.extab.text.alDeleteSources
                0x00000000        0x0 D:\oxygine-sound\dependencies\openalext\lib\android\libopenal.a(alSource.o)
 .ARM.extab.text.alGenSources
                0x00000000        0x0 D:\oxygine-sound\dependencies\openalext\lib\android\libopenal.a(alSource.o)
 .ARM.extab.text.alIsSource
                0x00000000        0x0 D:\oxygine-sound\dependencies\openalext\lib\android\libopenal.a(alSource.o)
 .ARM.extab.text.alSource3f
                0x00000000        0x0 D:\oxygine-sound\dependencies\openalext\lib\android\libopenal.a(alSource.o)
 .ARM.extab.text.alSource3i
                0x00000000        0x0 D:\oxygine-sound\dependencies\openalext\lib\android\libopenal.a(alSource.o)
 .ARM.extab.text.alGetSourcef
                0x00000000        0x0 D:\oxygine-sound\dependencies\openalext\lib\android\libopenal.a(alSource.o)
 .ARM.extab.text.alGetSource3f
                0x00000000        0x0 D:\oxygine-sound\dependencies\openalext\lib\android\libopenal.a(alSource.o)
 .ARM.extab.text.alGetSourcefv
                0x00000000        0x0 D:\oxygine-sound\dependencies\openalext\lib\android\libopenal.a(alSource.o)
 .ARM.extab.text.alGetSourcei
                0x00000000        0x0 D:\oxygine-sound\dependencies\openalext\lib\android\libopenal.a(alSource.o)
 .ARM.extab.text.alGetSource3i
                0x00000000        0x0 D:\oxygine-sound\dependencies\openalext\lib\android\libopenal.a(alSource.o)
 .ARM.extab.text.alGetSourceiv
                0x00000000        0x0 D:\oxygine-sound\dependencies\openalext\lib\android\libopenal.a(alSource.o)
 .ARM.extab.text.alSourceQueueBuffers
                0x00000000        0x0 D:\oxygine-sound\dependencies\openalext\lib\android\libopenal.a(alSource.o)
 .ARM.extab.text.alSourceUnqueueBuffers
                0x00000000        0x0 D:\oxygine-sound\dependencies\openalext\lib\android\libopenal.a(alSource.o)
 .ARM.extab.text.ApplyOffset
                0x00000000        0x0 D:\oxygine-sound\dependencies\openalext\lib\android\libopenal.a(alSource.o)
 .ARM.extab.text.SetSourceState
                0x00000000        0x0 D:\oxygine-sound\dependencies\openalext\lib\android\libopenal.a(alSource.o)
 .ARM.extab.text.alSourceRewindv
                0x00000000        0x0 D:\oxygine-sound\dependencies\openalext\lib\android\libopenal.a(alSource.o)
 .ARM.extab.text.alSourceStopv
                0x00000000        0x0 D:\oxygine-sound\dependencies\openalext\lib\android\libopenal.a(alSource.o)
 .ARM.extab.text.alSourcePausev
                0x00000000        0x0 D:\oxygine-sound\dependencies\openalext\lib\android\libopenal.a(alSource.o)
 .ARM.extab.text.alSourcePlayv
                0x00000000        0x0 D:\oxygine-sound\dependencies\openalext\lib\android\libopenal.a(alSource.o)
 .ARM.extab.text.alSourcefv
                0x00000000        0x0 D:\oxygine-sound\dependencies\openalext\lib\android\libopenal.a(alSource.o)
 .ARM.extab.text.alSourcei
                0x00000000        0x0 D:\oxygine-sound\dependencies\openalext\lib\android\libopenal.a(alSource.o)
 .ARM.extab.text.alSourceiv
                0x00000000        0x0 D:\oxygine-sound\dependencies\openalext\lib\android\libopenal.a(alSource.o)
 .ARM.extab.text.ReleaseALSources
                0x00000000        0x0 D:\oxygine-sound\dependencies\openalext\lib\android\libopenal.a(alSource.o)
 .note.GNU-stack
                0x00000000        0x0 D:\oxygine-sound\dependencies\openalext\lib\android\libopenal.a(alSource.o)
 .text          0x00000000        0x0 D:\oxygine-sound\dependencies\openalext\lib\android\libopenal.a(alThunk.o)
 .data          0x00000000        0x0 D:\oxygine-sound\dependencies\openalext\lib\android\libopenal.a(alThunk.o)
 .ARM.extab.text.ThunkInit
                0x00000000        0x0 D:\oxygine-sound\dependencies\openalext\lib\android\libopenal.a(alThunk.o)
 .ARM.extab.text.ThunkExit
                0x00000000        0x0 D:\oxygine-sound\dependencies\openalext\lib\android\libopenal.a(alThunk.o)
 .ARM.extab.text.NewThunkEntry
                0x00000000        0x0 D:\oxygine-sound\dependencies\openalext\lib\android\libopenal.a(alThunk.o)
 .ARM.extab.text.FreeThunkEntry
                0x00000000        0x0 D:\oxygine-sound\dependencies\openalext\lib\android\libopenal.a(alThunk.o)
 .note.GNU-stack
                0x00000000        0x0 D:\oxygine-sound\dependencies\openalext\lib\android\libopenal.a(alThunk.o)
 .text          0x00000000        0x0 D:\oxygine-sound\dependencies\openalext\lib\android\libopenal.a(ALc.o)
 .ARM.extab.text.alcSuspendContext
                0x00000000        0x0 D:\oxygine-sound\dependencies\openalext\lib\android\libopenal.a(ALc.o)
 .ARM.extab.text.alcProcessContext
                0x00000000        0x0 D:\oxygine-sound\dependencies\openalext\lib\android\libopenal.a(ALc.o)
 .ARM.extab.text.LockLists
                0x00000000        0x0 D:\oxygine-sound\dependencies\openalext\lib\android\libopenal.a(ALc.o)
 .ARM.extab.text.UnlockLists
                0x00000000        0x0 D:\oxygine-sound\dependencies\openalext\lib\android\libopenal.a(ALc.o)
 .ARM.extab.text.alcSetError
                0x00000000        0x0 D:\oxygine-sound\dependencies\openalext\lib\android\libopenal.a(ALc.o)
 .ARM.extab.text.alcLoopbackOpenDeviceSOFT
                0x00000000        0x0 D:\oxygine-sound\dependencies\openalext\lib\android\libopenal.a(ALc.o)
 .ARM.extab.text.alcGetThreadContext
                0x00000000        0x0 D:\oxygine-sound\dependencies\openalext\lib\android\libopenal.a(ALc.o)
 .ARM.extab.text.alcGetCurrentContext
                0x00000000        0x0 D:\oxygine-sound\dependencies\openalext\lib\android\libopenal.a(ALc.o)
 .ARM.extab.text.ProbeList
                0x00000000        0x0 D:\oxygine-sound\dependencies\openalext\lib\android\libopenal.a(ALc.o)
 .ARM.extab.text.alcCaptureOpenDevice
                0x00000000        0x0 D:\oxygine-sound\dependencies\openalext\lib\android\libopenal.a(ALc.o)
 .ARM.extab.text.alcOpenDevice
                0x00000000        0x0 D:\oxygine-sound\dependencies\openalext\lib\android\libopenal.a(ALc.o)
 .ARM.extab.text.exit.ReleaseALC
                0x00000000        0x0 D:\oxygine-sound\dependencies\openalext\lib\android\libopenal.a(ALc.o)
 .ARM.extab.text.AppendList
                0x00000000        0x0 D:\oxygine-sound\dependencies\openalext\lib\android\libopenal.a(ALc.o)
 .ARM.extab.text.startup.alc_init
                0x00000000        0x0 D:\oxygine-sound\dependencies\openalext\lib\android\libopenal.a(ALc.o)
 .ARM.extab.text.exit.alc_deinit
                0x00000000        0x0 D:\oxygine-sound\dependencies\openalext\lib\android\libopenal.a(ALc.o)
 .ARM.extab.text.AppendAllDeviceList
                0x00000000        0x0 D:\oxygine-sound\dependencies\openalext\lib\android\libopenal.a(ALc.o)
 .ARM.extab.text.AppendCaptureDeviceList
                0x00000000        0x0 D:\oxygine-sound\dependencies\openalext\lib\android\libopenal.a(ALc.o)
 .ARM.extab.text.SetDefaultWFXChannelOrder
                0x00000000        0x0 D:\oxygine-sound\dependencies\openalext\lib\android\libopenal.a(ALc.o)
 .ARM.extab.text.SetDefaultChannelOrder
                0x00000000        0x0 D:\oxygine-sound\dependencies\openalext\lib\android\libopenal.a(ALc.o)
 .ARM.extab.text.DevFmtTypeString
                0x00000000        0x0 D:\oxygine-sound\dependencies\openalext\lib\android\libopenal.a(ALc.o)
 .ARM.extab.text.DevFmtChannelsString
                0x00000000        0x0 D:\oxygine-sound\dependencies\openalext\lib\android\libopenal.a(ALc.o)
 .ARM.extab.text.BytesFromDevFmt
                0x00000000        0x0 D:\oxygine-sound\dependencies\openalext\lib\android\libopenal.a(ALc.o)
 .ARM.extab.text.ChannelsFromDevFmt
                0x00000000        0x0 D:\oxygine-sound\dependencies\openalext\lib\android\libopenal.a(ALc.o)
 .ARM.extab.text.ALCdevice_IncRef
                0x00000000        0x0 D:\oxygine-sound\dependencies\openalext\lib\android\libopenal.a(ALc.o)
 .ARM.extab.text.VerifyDevice
                0x00000000        0x0 D:\oxygine-sound\dependencies\openalext\lib\android\libopenal.a(ALc.o)
 .ARM.extab.text.ALCdevice_DecRef
                0x00000000        0x0 D:\oxygine-sound\dependencies\openalext\lib\android\libopenal.a(ALc.o)
 .ARM.extab.text.alcRenderSamplesSOFT
                0x00000000        0x0 D:\oxygine-sound\dependencies\openalext\lib\android\libopenal.a(ALc.o)
 .ARM.extab.text.alcIsRenderFormatSupportedSOFT
                0x00000000        0x0 D:\oxygine-sound\dependencies\openalext\lib\android\libopenal.a(ALc.o)
 .ARM.extab.text.alcCreateContext
                0x00000000        0x0 D:\oxygine-sound\dependencies\openalext\lib\android\libopenal.a(ALc.o)
 .ARM.extab.text.alcGetEnumValue
                0x00000000        0x0 D:\oxygine-sound\dependencies\openalext\lib\android\libopenal.a(ALc.o)
 .ARM.extab.text.alcGetProcAddress
                0x00000000        0x0 D:\oxygine-sound\dependencies\openalext\lib\android\libopenal.a(ALc.o)
 .ARM.extab.text.alcIsExtensionPresent
                0x00000000        0x0 D:\oxygine-sound\dependencies\openalext\lib\android\libopenal.a(ALc.o)
 .ARM.extab.text.alcGetIntegerv
                0x00000000        0x0 D:\oxygine-sound\dependencies\openalext\lib\android\libopenal.a(ALc.o)
 .ARM.extab.text.alcGetString
                0x00000000        0x0 D:\oxygine-sound\dependencies\openalext\lib\android\libopenal.a(ALc.o)
 .ARM.extab.text.alcGetError
                0x00000000        0x0 D:\oxygine-sound\dependencies\openalext\lib\android\libopenal.a(ALc.o)
 .ARM.extab.text.alcCaptureSamples
                0x00000000        0x0 D:\oxygine-sound\dependencies\openalext\lib\android\libopenal.a(ALc.o)
 .ARM.extab.text.alcCaptureStop
                0x00000000        0x0 D:\oxygine-sound\dependencies\openalext\lib\android\libopenal.a(ALc.o)
 .ARM.extab.text.alcCaptureStart
                0x00000000        0x0 D:\oxygine-sound\dependencies\openalext\lib\android\libopenal.a(ALc.o)
 .ARM.extab.text.alcCaptureCloseDevice
                0x00000000        0x0 D:\oxygine-sound\dependencies\openalext\lib\android\libopenal.a(ALc.o)
 .ARM.extab.text.ALCcontext_IncRef
                0x00000000        0x0 D:\oxygine-sound\dependencies\openalext\lib\android\libopenal.a(ALc.o)
 .ARM.extab.text.VerifyContext
                0x00000000        0x0 D:\oxygine-sound\dependencies\openalext\lib\android\libopenal.a(ALc.o)
 .ARM.extab.text.ALCcontext_DecRef
                0x00000000        0x0 D:\oxygine-sound\dependencies\openalext\lib\android\libopenal.a(ALc.o)
 .ARM.extab.text.ReleaseContext
                0x00000000        0x0 D:\oxygine-sound\dependencies\openalext\lib\android\libopenal.a(ALc.o)
 .ARM.extab.text.alcCloseDevice
                0x00000000        0x0 D:\oxygine-sound\dependencies\openalext\lib\android\libopenal.a(ALc.o)
 .ARM.extab.text.alcGetContextsDevice
                0x00000000        0x0 D:\oxygine-sound\dependencies\openalext\lib\android\libopenal.a(ALc.o)
 .ARM.extab.text.alcDestroyContext
                0x00000000        0x0 D:\oxygine-sound\dependencies\openalext\lib\android\libopenal.a(ALc.o)
 .ARM.extab.text.alcSetThreadContext
                0x00000000        0x0 D:\oxygine-sound\dependencies\openalext\lib\android\libopenal.a(ALc.o)
 .ARM.extab.text.alcMakeContextCurrent
                0x00000000        0x0 D:\oxygine-sound\dependencies\openalext\lib\android\libopenal.a(ALc.o)
 .ARM.extab.text.ReleaseThreadCtx
                0x00000000        0x0 D:\oxygine-sound\dependencies\openalext\lib\android\libopenal.a(ALc.o)
 .ARM.extab.text.GetContextRef
                0x00000000        0x0 D:\oxygine-sound\dependencies\openalext\lib\android\libopenal.a(ALc.o)
 .note.GNU-stack
                0x00000000        0x0 D:\oxygine-sound\dependencies\openalext\lib\android\libopenal.a(ALc.o)
 .text          0x00000000        0x0 D:\oxygine-sound\dependencies\openalext\lib\android\libopenal.a(alcConfig.o)
 .data          0x00000000        0x0 D:\oxygine-sound\dependencies\openalext\lib\android\libopenal.a(alcConfig.o)
 .ARM.extab.text.LoadConfigFromFile
                0x00000000        0x0 D:\oxygine-sound\dependencies\openalext\lib\android\libopenal.a(alcConfig.o)
 .ARM.extab.text.ReadALConfig
                0x00000000        0x0 D:\oxygine-sound\dependencies\openalext\lib\android\libopenal.a(alcConfig.o)
 .ARM.extab.text.FreeALConfig
                0x00000000        0x0 D:\oxygine-sound\dependencies\openalext\lib\android\libopenal.a(alcConfig.o)
 .ARM.extab.text.GetConfigValue
                0x00000000        0x0 D:\oxygine-sound\dependencies\openalext\lib\android\libopenal.a(alcConfig.o)
 .ARM.extab.text.ConfigValueStr
                0x00000000        0x0 D:\oxygine-sound\dependencies\openalext\lib\android\libopenal.a(alcConfig.o)
 .ARM.extab.text.ConfigValueInt
                0x00000000        0x0 D:\oxygine-sound\dependencies\openalext\lib\android\libopenal.a(alcConfig.o)
 .ARM.extab.text.ConfigValueUInt
                0x00000000        0x0 D:\oxygine-sound\dependencies\openalext\lib\android\libopenal.a(alcConfig.o)
 .ARM.extab.text.ConfigValueFloat
                0x00000000        0x0 D:\oxygine-sound\dependencies\openalext\lib\android\libopenal.a(alcConfig.o)
 .ARM.extab.text.GetConfigValueBool
                0x00000000        0x0 D:\oxygine-sound\dependencies\openalext\lib\android\libopenal.a(alcConfig.o)
 .note.GNU-stack
                0x00000000        0x0 D:\oxygine-sound\dependencies\openalext\lib\android\libopenal.a(alcConfig.o)
 .text          0x00000000        0x0 D:\oxygine-sound\dependencies\openalext\lib\android\libopenal.a(alcReverb.o)
 .ARM.extab.text.DelayLineIn
                0x00000000        0x0 D:\oxygine-sound\dependencies\openalext\lib\android\libopenal.a(alcReverb.o)
 .ARM.extab.text.EarlyDelayLineOut
                0x00000000        0x0 D:\oxygine-sound\dependencies\openalext\lib\android\libopenal.a(alcReverb.o)
 .ARM.extab.text.LateDelayLineOut
                0x00000000        0x0 D:\oxygine-sound\dependencies\openalext\lib\android\libopenal.a(alcReverb.o)
 .ARM.extab.text.LateReverb
                0x00000000        0x0 D:\oxygine-sound\dependencies\openalext\lib\android\libopenal.a(alcReverb.o)
 .ARM.extab.text.CalcLineLength
                0x00000000        0x0 D:\oxygine-sound\dependencies\openalext\lib\android\libopenal.a(alcReverb.o)
 .ARM.extab.text.ReverbDestroy
                0x00000000        0x0 D:\oxygine-sound\dependencies\openalext\lib\android\libopenal.a(alcReverb.o)
 .ARM.extab.text.ReverbCreate
                0x00000000        0x0 D:\oxygine-sound\dependencies\openalext\lib\android\libopenal.a(alcReverb.o)
 .note.GNU-stack
                0x00000000        0x0 D:\oxygine-sound\dependencies\openalext\lib\android\libopenal.a(alcReverb.o)
 .text          0x00000000        0x0 D:\oxygine-sound\dependencies\openalext\lib\android\libopenal.a(ALu.o)
 .bss           0x00000000        0x0 D:\oxygine-sound\dependencies\openalext\lib\android\libopenal.a(ALu.o)
 .ARM.extab.text.aluDotproduct
                0x00000000        0x0 D:\oxygine-sound\dependencies\openalext\lib\android\libopenal.a(ALu.o)
 .ARM.extab.text.aluMatrixVector
                0x00000000        0x0 D:\oxygine-sound\dependencies\openalext\lib\android\libopenal.a(ALu.o)
 .ARM.extab.text.aluNormalize
                0x00000000        0x0 D:\oxygine-sound\dependencies\openalext\lib\android\libopenal.a(ALu.o)
 .ARM.extab.text.aluF2I
                0x00000000        0x0 D:\oxygine-sound\dependencies\openalext\lib\android\libopenal.a(ALu.o)
 .ARM.extab.text.aluHandleDisconnect
                0x00000000        0x0 D:\oxygine-sound\dependencies\openalext\lib\android\libopenal.a(ALu.o)
 .note.GNU-stack
                0x00000000        0x0 D:\oxygine-sound\dependencies\openalext\lib\android\libopenal.a(ALu.o)
 .text          0x00000000        0x0 D:\oxygine-sound\dependencies\openalext\lib\android\libopenal.a(bs2b.o)
 .data          0x00000000        0x0 D:\oxygine-sound\dependencies\openalext\lib\android\libopenal.a(bs2b.o)
 .bss           0x00000000        0x0 D:\oxygine-sound\dependencies\openalext\lib\android\libopenal.a(bs2b.o)
 .ARM.extab.text.init
                0x00000000        0x0 D:\oxygine-sound\dependencies\openalext\lib\android\libopenal.a(bs2b.o)
 .ARM.extab.text.bs2b_set_level
                0x00000000        0x0 D:\oxygine-sound\dependencies\openalext\lib\android\libopenal.a(bs2b.o)
 .ARM.extab.text.bs2b_get_level
                0x00000000        0x0 D:\oxygine-sound\dependencies\openalext\lib\android\libopenal.a(bs2b.o)
 .ARM.extab.text.bs2b_set_srate
                0x00000000        0x0 D:\oxygine-sound\dependencies\openalext\lib\android\libopenal.a(bs2b.o)
 .ARM.extab.text.bs2b_get_srate
                0x00000000        0x0 D:\oxygine-sound\dependencies\openalext\lib\android\libopenal.a(bs2b.o)
 .ARM.extab.text.bs2b_clear
                0x00000000        0x0 D:\oxygine-sound\dependencies\openalext\lib\android\libopenal.a(bs2b.o)
 .ARM.extab.text.bs2b_cross_feed
                0x00000000        0x0 D:\oxygine-sound\dependencies\openalext\lib\android\libopenal.a(bs2b.o)
 .note.GNU-stack
                0x00000000        0x0 D:\oxygine-sound\dependencies\openalext\lib\android\libopenal.a(bs2b.o)
 .text          0x00000000        0x0 D:\oxygine-sound\dependencies\openalext\lib\android\libopenal.a(helpers.o)
 .data          0x00000000        0x0 D:\oxygine-sound\dependencies\openalext\lib\android\libopenal.a(helpers.o)
 .ARM.extab.text.Lock
                0x00000000        0x0 D:\oxygine-sound\dependencies\openalext\lib\android\libopenal.a(helpers.o)
 .ARM.extab.text.InitializeCriticalSection
                0x00000000        0x0 D:\oxygine-sound\dependencies\openalext\lib\android\libopenal.a(helpers.o)
 .ARM.extab.text.DeleteCriticalSection
                0x00000000        0x0 D:\oxygine-sound\dependencies\openalext\lib\android\libopenal.a(helpers.o)
 .ARM.extab.text.EnterCriticalSection
                0x00000000        0x0 D:\oxygine-sound\dependencies\openalext\lib\android\libopenal.a(helpers.o)
 .ARM.extab.text.LeaveCriticalSection
                0x00000000        0x0 D:\oxygine-sound\dependencies\openalext\lib\android\libopenal.a(helpers.o)
 .ARM.extab.text.timeGetTime
                0x00000000        0x0 D:\oxygine-sound\dependencies\openalext\lib\android\libopenal.a(helpers.o)
 .ARM.extab.text.Sleep
                0x00000000        0x0 D:\oxygine-sound\dependencies\openalext\lib\android\libopenal.a(helpers.o)
 .ARM.extab.text.LoadLib
                0x00000000        0x0 D:\oxygine-sound\dependencies\openalext\lib\android\libopenal.a(helpers.o)
 .ARM.extab.text.CloseLib
                0x00000000        0x0 D:\oxygine-sound\dependencies\openalext\lib\android\libopenal.a(helpers.o)
 .ARM.extab.text.GetSymbol
                0x00000000        0x0 D:\oxygine-sound\dependencies\openalext\lib\android\libopenal.a(helpers.o)
 .ARM.extab.text.SetRTPriority
                0x00000000        0x0 D:\oxygine-sound\dependencies\openalext\lib\android\libopenal.a(helpers.o)
 .ARM.extab.text.RWLockInit
                0x00000000        0x0 D:\oxygine-sound\dependencies\openalext\lib\android\libopenal.a(helpers.o)
 .ARM.extab.text.ReadLock
                0x00000000        0x0 D:\oxygine-sound\dependencies\openalext\lib\android\libopenal.a(helpers.o)
 .ARM.extab.text.ReadUnlock
                0x00000000        0x0 D:\oxygine-sound\dependencies\openalext\lib\android\libopenal.a(helpers.o)
 .ARM.extab.text.WriteLock
                0x00000000        0x0 D:\oxygine-sound\dependencies\openalext\lib\android\libopenal.a(helpers.o)
 .ARM.extab.text.WriteUnlock
                0x00000000        0x0 D:\oxygine-sound\dependencies\openalext\lib\android\libopenal.a(helpers.o)
 .ARM.extab.text.InitUIntMap
                0x00000000        0x0 D:\oxygine-sound\dependencies\openalext\lib\android\libopenal.a(helpers.o)
 .ARM.extab.text.ResetUIntMap
                0x00000000        0x0 D:\oxygine-sound\dependencies\openalext\lib\android\libopenal.a(helpers.o)
 .ARM.extab.text.InsertUIntMapEntry
                0x00000000        0x0 D:\oxygine-sound\dependencies\openalext\lib\android\libopenal.a(helpers.o)
 .ARM.extab.text.RemoveUIntMapKey
                0x00000000        0x0 D:\oxygine-sound\dependencies\openalext\lib\android\libopenal.a(helpers.o)
 .ARM.extab.text.LookupUIntMapKey
                0x00000000        0x0 D:\oxygine-sound\dependencies\openalext\lib\android\libopenal.a(helpers.o)
 .note.GNU-stack
                0x00000000        0x0 D:\oxygine-sound\dependencies\openalext\lib\android\libopenal.a(helpers.o)
 .text          0x00000000        0x0 D:\oxygine-sound\dependencies\openalext\lib\android\libopenal.a(hrtf.o)
 .data          0x00000000        0x0 D:\oxygine-sound\dependencies\openalext\lib\android\libopenal.a(hrtf.o)
 .ARM.extab.text.CalcAzIndices
                0x00000000        0x0 D:\oxygine-sound\dependencies\openalext\lib\android\libopenal.a(hrtf.o)
 .ARM.extab.text.GetHrtf
                0x00000000        0x0 D:\oxygine-sound\dependencies\openalext\lib\android\libopenal.a(hrtf.o)
 .ARM.extab.text.FreeHrtf
                0x00000000        0x0 D:\oxygine-sound\dependencies\openalext\lib\android\libopenal.a(hrtf.o)
 .note.GNU-stack
                0x00000000        0x0 D:\oxygine-sound\dependencies\openalext\lib\android\libopenal.a(hrtf.o)
 .text          0x00000000        0x0 D:\oxygine-sound\dependencies\openalext\lib\android\libopenal.a(mixer.o)
 .data          0x00000000        0x0 D:\oxygine-sound\dependencies\openalext\lib\android\libopenal.a(mixer.o)
 .bss           0x00000000        0x0 D:\oxygine-sound\dependencies\openalext\lib\android\libopenal.a(mixer.o)
 .ARM.extab.text.lpFilter2P
                0x00000000        0x0 D:\oxygine-sound\dependencies\openalext\lib\android\libopenal.a(mixer.o)
 .ARM.extab.text.lpFilter2PC
                0x00000000        0x0 D:\oxygine-sound\dependencies\openalext\lib\android\libopenal.a(mixer.o)
 .ARM.extab.text.lerp32
                0x00000000        0x0 D:\oxygine-sound\dependencies\openalext\lib\android\libopenal.a(mixer.o)
 .ARM.extab.text.cubic32
                0x00000000        0x0 D:\oxygine-sound\dependencies\openalext\lib\android\libopenal.a(mixer.o)
 .ARM.extab.text.ApplyCoeffs
                0x00000000        0x0 D:\oxygine-sound\dependencies\openalext\lib\android\libopenal.a(mixer.o)
 .ARM.extab.text.Mix_ALfloat_point32
                0x00000000        0x0 D:\oxygine-sound\dependencies\openalext\lib\android\libopenal.a(mixer.o)
 .ARM.extab.text.LoadStack
                0x00000000        0x0 D:\oxygine-sound\dependencies\openalext\lib\android\libopenal.a(mixer.o)
 .ARM.extab.text.SilenceStack
                0x00000000        0x0 D:\oxygine-sound\dependencies\openalext\lib\android\libopenal.a(mixer.o)
 .ARM.extab.text.Mix_Hrtf_ALfloat_point32
                0x00000000        0x0 D:\oxygine-sound\dependencies\openalext\lib\android\libopenal.a(mixer.o)
 .ARM.extab.text.SelectMixer
                0x00000000        0x0 D:\oxygine-sound\dependencies\openalext\lib\android\libopenal.a(mixer.o)
 .ARM.extab.text.SelectHrtfMixer
                0x00000000        0x0 D:\oxygine-sound\dependencies\openalext\lib\android\libopenal.a(mixer.o)
 .note.GNU-stack
                0x00000000        0x0 D:\oxygine-sound\dependencies\openalext\lib\android\libopenal.a(mixer.o)
 .text          0x00000000        0x0 D:\oxygine-sound\dependencies\openalext\lib\android\libopenal.a(panning.o)
 .data          0x00000000        0x0 D:\oxygine-sound\dependencies\openalext\lib\android\libopenal.a(panning.o)
 .bss           0x00000000        0x0 D:\oxygine-sound\dependencies\openalext\lib\android\libopenal.a(panning.o)
 .ARM.extab.text.aluCart2LUTpos
                0x00000000        0x0 D:\oxygine-sound\dependencies\openalext\lib\android\libopenal.a(panning.o)
 .note.GNU-stack
                0x00000000        0x0 D:\oxygine-sound\dependencies\openalext\lib\android\libopenal.a(panning.o)
 .text          0x00000000        0x0 D:\oxygine-sound\dependencies\openalext\lib\android\libopenal.a(opensl.o)
 .data          0x00000000        0x0 D:\oxygine-sound\dependencies\openalext\lib\android\libopenal.a(opensl.o)
 .bss           0x00000000        0x0 D:\oxygine-sound\dependencies\openalext\lib\android\libopenal.a(opensl.o)
 .ARM.extab.text.res_str
                0x00000000        0x0 D:\oxygine-sound\dependencies\openalext\lib\android\libopenal.a(opensl.o)
 .ARM.extab.text.opensl_stop_playback
                0x00000000        0x0 D:\oxygine-sound\dependencies\openalext\lib\android\libopenal.a(opensl.o)
 .ARM.extab.text.opensl_close_playback
                0x00000000        0x0 D:\oxygine-sound\dependencies\openalext\lib\android\libopenal.a(opensl.o)
 .ARM.extab.text.opensl_start_playback
                0x00000000        0x0 D:\oxygine-sound\dependencies\openalext\lib\android\libopenal.a(opensl.o)
 .ARM.extab.text.opensl_callback
                0x00000000        0x0 D:\oxygine-sound\dependencies\openalext\lib\android\libopenal.a(opensl.o)
 .ARM.extab.text.opensl_reset_playback
                0x00000000        0x0 D:\oxygine-sound\dependencies\openalext\lib\android\libopenal.a(opensl.o)
 .ARM.extab.text.opensl_open_playback
                0x00000000        0x0 D:\oxygine-sound\dependencies\openalext\lib\android\libopenal.a(opensl.o)
 .ARM.extab.text.alc_opensl_init
                0x00000000        0x0 D:\oxygine-sound\dependencies\openalext\lib\android\libopenal.a(opensl.o)
 .ARM.extab.text.alc_opensl_deinit
                0x00000000        0x0 D:\oxygine-sound\dependencies\openalext\lib\android\libopenal.a(opensl.o)
 .ARM.extab.text.alc_opensl_probe
                0x00000000        0x0 D:\oxygine-sound\dependencies\openalext\lib\android\libopenal.a(opensl.o)
 .note.GNU-stack
                0x00000000        0x0 D:\oxygine-sound\dependencies\openalext\lib\android\libopenal.a(opensl.o)
 .text          0x00000000        0x0 D:\oxygine-sound\dependencies\openalext\lib\android\libopenal.a(null.o)
 .data          0x00000000        0x0 D:\oxygine-sound\dependencies\openalext\lib\android\libopenal.a(null.o)
 .bss           0x00000000        0x0 D:\oxygine-sound\dependencies\openalext\lib\android\libopenal.a(null.o)
 .ARM.extab.text.null_stop_playback
                0x00000000        0x0 D:\oxygine-sound\dependencies\openalext\lib\android\libopenal.a(null.o)
 .ARM.extab.text.null_start_playback
                0x00000000        0x0 D:\oxygine-sound\dependencies\openalext\lib\android\libopenal.a(null.o)
 .ARM.extab.text.NullProc
                0x00000000        0x0 D:\oxygine-sound\dependencies\openalext\lib\android\libopenal.a(null.o)
 .ARM.extab.text.null_close_playback
                0x00000000        0x0 D:\oxygine-sound\dependencies\openalext\lib\android\libopenal.a(null.o)
 .ARM.extab.text.null_open_playback
                0x00000000        0x0 D:\oxygine-sound\dependencies\openalext\lib\android\libopenal.a(null.o)
 .ARM.extab.text.alc_null_init
                0x00000000        0x0 D:\oxygine-sound\dependencies\openalext\lib\android\libopenal.a(null.o)
 .ARM.extab.text.alc_null_deinit
                0x00000000        0x0 D:\oxygine-sound\dependencies\openalext\lib\android\libopenal.a(null.o)
 .ARM.extab.text.alc_null_probe
                0x00000000        0x0 D:\oxygine-sound\dependencies\openalext\lib\android\libopenal.a(null.o)
 .note.GNU-stack
                0x00000000        0x0 D:\oxygine-sound\dependencies\openalext\lib\android\libopenal.a(null.o)
 .text          0x00000000        0x0 D:\oxygine-sound\dependencies\openalext\lib\android\libopenal.a(loopback.o)
 .data          0x00000000        0x0 D:\oxygine-sound\dependencies\openalext\lib\android\libopenal.a(loopback.o)
 .bss           0x00000000        0x0 D:\oxygine-sound\dependencies\openalext\lib\android\libopenal.a(loopback.o)
 .ARM.extab.text.loopback_close_playback
                0x00000000        0x0 D:\oxygine-sound\dependencies\openalext\lib\android\libopenal.a(loopback.o)
 .ARM.extab.text.loopback_start_playback
                0x00000000        0x0 D:\oxygine-sound\dependencies\openalext\lib\android\libopenal.a(loopback.o)
 .ARM.extab.text.loopback_stop_playback
                0x00000000        0x0 D:\oxygine-sound\dependencies\openalext\lib\android\libopenal.a(loopback.o)
 .ARM.extab.text.loopback_open_playback
                0x00000000        0x0 D:\oxygine-sound\dependencies\openalext\lib\android\libopenal.a(loopback.o)
 .ARM.extab.text.alc_loopback_init
                0x00000000        0x0 D:\oxygine-sound\dependencies\openalext\lib\android\libopenal.a(loopback.o)
 .ARM.extab.text.alc_loopback_deinit
                0x00000000        0x0 D:\oxygine-sound\dependencies\openalext\lib\android\libopenal.a(loopback.o)
 .ARM.extab.text.alc_loopback_probe
                0x00000000        0x0 D:\oxygine-sound\dependencies\openalext\lib\android\libopenal.a(loopback.o)
 .note.GNU-stack
                0x00000000        0x0 D:\oxygine-sound\dependencies\openalext\lib\android\libopenal.a(loopback.o)
 .text          0x00000000        0x0 D:\oxygine-sound\dependencies\openalext\lib\android\libopenal.a(alAuxEffectSlot.o)
 .data          0x00000000        0x0 D:\oxygine-sound\dependencies\openalext\lib\android\libopenal.a(alAuxEffectSlot.o)
 .bss           0x00000000        0x0 D:\oxygine-sound\dependencies\openalext\lib\android\libopenal.a(alAuxEffectSlot.o)
 .ARM.extab.text.NoneDeviceUpdate
                0x00000000        0x0 D:\oxygine-sound\dependencies\openalext\lib\android\libopenal.a(alAuxEffectSlot.o)
 .ARM.extab.text.NoneUpdate
                0x00000000        0x0 D:\oxygine-sound\dependencies\openalext\lib\android\libopenal.a(alAuxEffectSlot.o)
 .ARM.extab.text.NoneProcess
                0x00000000        0x0 D:\oxygine-sound\dependencies\openalext\lib\android\libopenal.a(alAuxEffectSlot.o)
 .ARM.extab.text.NoneDestroy
                0x00000000        0x0 D:\oxygine-sound\dependencies\openalext\lib\android\libopenal.a(alAuxEffectSlot.o)
 .ARM.extab.text.RemoveEffectSlotArray
                0x00000000        0x0 D:\oxygine-sound\dependencies\openalext\lib\android\libopenal.a(alAuxEffectSlot.o)
 .ARM.extab.text.alDeleteAuxiliaryEffectSlots
                0x00000000        0x0 D:\oxygine-sound\dependencies\openalext\lib\android\libopenal.a(alAuxEffectSlot.o)
 .ARM.extab.text.alIsAuxiliaryEffectSlot
                0x00000000        0x0 D:\oxygine-sound\dependencies\openalext\lib\android\libopenal.a(alAuxEffectSlot.o)
 .ARM.extab.text.alAuxiliaryEffectSlotf
                0x00000000        0x0 D:\oxygine-sound\dependencies\openalext\lib\android\libopenal.a(alAuxEffectSlot.o)
 .ARM.extab.text.alAuxiliaryEffectSlotfv
                0x00000000        0x0 D:\oxygine-sound\dependencies\openalext\lib\android\libopenal.a(alAuxEffectSlot.o)
 .ARM.extab.text.alGetAuxiliaryEffectSloti
                0x00000000        0x0 D:\oxygine-sound\dependencies\openalext\lib\android\libopenal.a(alAuxEffectSlot.o)
 .ARM.extab.text.alGetAuxiliaryEffectSlotiv
                0x00000000        0x0 D:\oxygine-sound\dependencies\openalext\lib\android\libopenal.a(alAuxEffectSlot.o)
 .ARM.extab.text.alGetAuxiliaryEffectSlotf
                0x00000000        0x0 D:\oxygine-sound\dependencies\openalext\lib\android\libopenal.a(alAuxEffectSlot.o)
 .ARM.extab.text.alGetAuxiliaryEffectSlotfv
                0x00000000        0x0 D:\oxygine-sound\dependencies\openalext\lib\android\libopenal.a(alAuxEffectSlot.o)
 .ARM.extab.text.InitializeEffect
                0x00000000        0x0 D:\oxygine-sound\dependencies\openalext\lib\android\libopenal.a(alAuxEffectSlot.o)
 .ARM.extab.text.alAuxiliaryEffectSloti
                0x00000000        0x0 D:\oxygine-sound\dependencies\openalext\lib\android\libopenal.a(alAuxEffectSlot.o)
 .ARM.extab.text.alAuxiliaryEffectSlotiv
                0x00000000        0x0 D:\oxygine-sound\dependencies\openalext\lib\android\libopenal.a(alAuxEffectSlot.o)
 .ARM.extab.text.InitEffectSlot
                0x00000000        0x0 D:\oxygine-sound\dependencies\openalext\lib\android\libopenal.a(alAuxEffectSlot.o)
 .ARM.extab.text.alGenAuxiliaryEffectSlots
                0x00000000        0x0 D:\oxygine-sound\dependencies\openalext\lib\android\libopenal.a(alAuxEffectSlot.o)
 .ARM.extab.text.ReleaseALAuxiliaryEffectSlots
                0x00000000        0x0 D:\oxygine-sound\dependencies\openalext\lib\android\libopenal.a(alAuxEffectSlot.o)
 .note.GNU-stack
                0x00000000        0x0 D:\oxygine-sound\dependencies\openalext\lib\android\libopenal.a(alAuxEffectSlot.o)
 .text          0x00000000        0x0 D:\oxygine-sound\dependencies\openalext\lib\android\libopenal.a(alEffect.o)
 .data          0x00000000        0x0 D:\oxygine-sound\dependencies\openalext\lib\android\libopenal.a(alEffect.o)
 .bss           0x00000000        0x0 D:\oxygine-sound\dependencies\openalext\lib\android\libopenal.a(alEffect.o)
 .ARM.extab.text.InitEffectParams
                0x00000000        0x0 D:\oxygine-sound\dependencies\openalext\lib\android\libopenal.a(alEffect.o)
 .ARM.extab.text.null_GetParamfv
                0x00000000        0x0 D:\oxygine-sound\dependencies\openalext\lib\android\libopenal.a(alEffect.o)
 .ARM.extab.text.null_GetParamf
                0x00000000        0x0 D:\oxygine-sound\dependencies\openalext\lib\android\libopenal.a(alEffect.o)
 .ARM.extab.text.null_GetParamiv
                0x00000000        0x0 D:\oxygine-sound\dependencies\openalext\lib\android\libopenal.a(alEffect.o)
 .ARM.extab.text.null_GetParami
                0x00000000        0x0 D:\oxygine-sound\dependencies\openalext\lib\android\libopenal.a(alEffect.o)
 .ARM.extab.text.null_SetParamfv
                0x00000000        0x0 D:\oxygine-sound\dependencies\openalext\lib\android\libopenal.a(alEffect.o)
 .ARM.extab.text.null_SetParamf
                0x00000000        0x0 D:\oxygine-sound\dependencies\openalext\lib\android\libopenal.a(alEffect.o)
 .ARM.extab.text.null_SetParamiv
                0x00000000        0x0 D:\oxygine-sound\dependencies\openalext\lib\android\libopenal.a(alEffect.o)
 .ARM.extab.text.null_SetParami
                0x00000000        0x0 D:\oxygine-sound\dependencies\openalext\lib\android\libopenal.a(alEffect.o)
 .ARM.extab.text.ded_GetParamf
                0x00000000        0x0 D:\oxygine-sound\dependencies\openalext\lib\android\libopenal.a(alEffect.o)
 .ARM.extab.text.ded_GetParamfv
                0x00000000        0x0 D:\oxygine-sound\dependencies\openalext\lib\android\libopenal.a(alEffect.o)
 .ARM.extab.text.ded_GetParami
                0x00000000        0x0 D:\oxygine-sound\dependencies\openalext\lib\android\libopenal.a(alEffect.o)
 .ARM.extab.text.ded_GetParamiv
                0x00000000        0x0 D:\oxygine-sound\dependencies\openalext\lib\android\libopenal.a(alEffect.o)
 .ARM.extab.text.ded_SetParami
                0x00000000        0x0 D:\oxygine-sound\dependencies\openalext\lib\android\libopenal.a(alEffect.o)
 .ARM.extab.text.ded_SetParamiv
                0x00000000        0x0 D:\oxygine-sound\dependencies\openalext\lib\android\libopenal.a(alEffect.o)
 .ARM.extab.text.mod_GetParamf
                0x00000000        0x0 D:\oxygine-sound\dependencies\openalext\lib\android\libopenal.a(alEffect.o)
 .ARM.extab.text.mod_GetParamfv
                0x00000000        0x0 D:\oxygine-sound\dependencies\openalext\lib\android\libopenal.a(alEffect.o)
 .ARM.extab.text.mod_GetParami
                0x00000000        0x0 D:\oxygine-sound\dependencies\openalext\lib\android\libopenal.a(alEffect.o)
 .ARM.extab.text.mod_GetParamiv
                0x00000000        0x0 D:\oxygine-sound\dependencies\openalext\lib\android\libopenal.a(alEffect.o)
 .ARM.extab.text.echo_GetParamf
                0x00000000        0x0 D:\oxygine-sound\dependencies\openalext\lib\android\libopenal.a(alEffect.o)
 .ARM.extab.text.echo_GetParamfv
                0x00000000        0x0 D:\oxygine-sound\dependencies\openalext\lib\android\libopenal.a(alEffect.o)
 .ARM.extab.text.echo_GetParami
                0x00000000        0x0 D:\oxygine-sound\dependencies\openalext\lib\android\libopenal.a(alEffect.o)
 .ARM.extab.text.echo_GetParamiv
                0x00000000        0x0 D:\oxygine-sound\dependencies\openalext\lib\android\libopenal.a(alEffect.o)
 .ARM.extab.text.echo_SetParamf
                0x00000000        0x0 D:\oxygine-sound\dependencies\openalext\lib\android\libopenal.a(alEffect.o)
 .ARM.extab.text.echo_SetParamfv
                0x00000000        0x0 D:\oxygine-sound\dependencies\openalext\lib\android\libopenal.a(alEffect.o)
 .ARM.extab.text.echo_SetParami
                0x00000000        0x0 D:\oxygine-sound\dependencies\openalext\lib\android\libopenal.a(alEffect.o)
 .ARM.extab.text.echo_SetParamiv
                0x00000000        0x0 D:\oxygine-sound\dependencies\openalext\lib\android\libopenal.a(alEffect.o)
 .ARM.extab.text.reverb_GetParamf
                0x00000000        0x0 D:\oxygine-sound\dependencies\openalext\lib\android\libopenal.a(alEffect.o)
 .ARM.extab.text.reverb_GetParamfv
                0x00000000        0x0 D:\oxygine-sound\dependencies\openalext\lib\android\libopenal.a(alEffect.o)
 .ARM.extab.text.reverb_GetParami
                0x00000000        0x0 D:\oxygine-sound\dependencies\openalext\lib\android\libopenal.a(alEffect.o)
 .ARM.extab.text.reverb_GetParamiv
                0x00000000        0x0 D:\oxygine-sound\dependencies\openalext\lib\android\libopenal.a(alEffect.o)
 .ARM.extab.text.reverb_SetParamf
                0x00000000        0x0 D:\oxygine-sound\dependencies\openalext\lib\android\libopenal.a(alEffect.o)
 .ARM.extab.text.reverb_SetParamfv
                0x00000000        0x0 D:\oxygine-sound\dependencies\openalext\lib\android\libopenal.a(alEffect.o)
 .ARM.extab.text.reverb_SetParami
                0x00000000        0x0 D:\oxygine-sound\dependencies\openalext\lib\android\libopenal.a(alEffect.o)
 .ARM.extab.text.reverb_SetParamiv
                0x00000000        0x0 D:\oxygine-sound\dependencies\openalext\lib\android\libopenal.a(alEffect.o)
 .ARM.extab.text.eaxreverb_GetParamf
                0x00000000        0x0 D:\oxygine-sound\dependencies\openalext\lib\android\libopenal.a(alEffect.o)
 .ARM.extab.text.eaxreverb_GetParami
                0x00000000        0x0 D:\oxygine-sound\dependencies\openalext\lib\android\libopenal.a(alEffect.o)
 .ARM.extab.text.eaxreverb_GetParamiv
                0x00000000        0x0 D:\oxygine-sound\dependencies\openalext\lib\android\libopenal.a(alEffect.o)
 .ARM.extab.text.eaxreverb_SetParamf
                0x00000000        0x0 D:\oxygine-sound\dependencies\openalext\lib\android\libopenal.a(alEffect.o)
 .ARM.extab.text.eaxreverb_SetParami
                0x00000000        0x0 D:\oxygine-sound\dependencies\openalext\lib\android\libopenal.a(alEffect.o)
 .ARM.extab.text.eaxreverb_SetParamiv
                0x00000000        0x0 D:\oxygine-sound\dependencies\openalext\lib\android\libopenal.a(alEffect.o)
 .ARM.extab.text.ded_SetParamfv
                0x00000000        0x0 D:\oxygine-sound\dependencies\openalext\lib\android\libopenal.a(alEffect.o)
 .ARM.extab.text.eaxreverb_SetParamfv
                0x00000000        0x0 D:\oxygine-sound\dependencies\openalext\lib\android\libopenal.a(alEffect.o)
 .ARM.extab.text.mod_SetParamf
                0x00000000        0x0 D:\oxygine-sound\dependencies\openalext\lib\android\libopenal.a(alEffect.o)
 .ARM.extab.text.mod_SetParamfv
                0x00000000        0x0 D:\oxygine-sound\dependencies\openalext\lib\android\libopenal.a(alEffect.o)
 .ARM.extab.text.mod_SetParami
                0x00000000        0x0 D:\oxygine-sound\dependencies\openalext\lib\android\libopenal.a(alEffect.o)
 .ARM.extab.text.mod_SetParamiv
                0x00000000        0x0 D:\oxygine-sound\dependencies\openalext\lib\android\libopenal.a(alEffect.o)
 .ARM.extab.text.eaxreverb_GetParamfv
                0x00000000        0x0 D:\oxygine-sound\dependencies\openalext\lib\android\libopenal.a(alEffect.o)
 .ARM.extab.text.alDeleteEffects
                0x00000000        0x0 D:\oxygine-sound\dependencies\openalext\lib\android\libopenal.a(alEffect.o)
 .ARM.extab.text.alIsEffect
                0x00000000        0x0 D:\oxygine-sound\dependencies\openalext\lib\android\libopenal.a(alEffect.o)
 .ARM.extab.text.alEffecti
                0x00000000        0x0 D:\oxygine-sound\dependencies\openalext\lib\android\libopenal.a(alEffect.o)
 .ARM.extab.text.alEffectiv
                0x00000000        0x0 D:\oxygine-sound\dependencies\openalext\lib\android\libopenal.a(alEffect.o)
 .ARM.extab.text.alEffectf
                0x00000000        0x0 D:\oxygine-sound\dependencies\openalext\lib\android\libopenal.a(alEffect.o)
 .ARM.extab.text.alEffectfv
                0x00000000        0x0 D:\oxygine-sound\dependencies\openalext\lib\android\libopenal.a(alEffect.o)
 .ARM.extab.text.alGetEffecti
                0x00000000        0x0 D:\oxygine-sound\dependencies\openalext\lib\android\libopenal.a(alEffect.o)
 .ARM.extab.text.alGetEffectiv
                0x00000000        0x0 D:\oxygine-sound\dependencies\openalext\lib\android\libopenal.a(alEffect.o)
 .ARM.extab.text.alGetEffectf
                0x00000000        0x0 D:\oxygine-sound\dependencies\openalext\lib\android\libopenal.a(alEffect.o)
 .ARM.extab.text.alGetEffectfv
                0x00000000        0x0 D:\oxygine-sound\dependencies\openalext\lib\android\libopenal.a(alEffect.o)
 .ARM.extab.text.alGenEffects
                0x00000000        0x0 D:\oxygine-sound\dependencies\openalext\lib\android\libopenal.a(alEffect.o)
 .ARM.extab.text.ReleaseALEffects
                0x00000000        0x0 D:\oxygine-sound\dependencies\openalext\lib\android\libopenal.a(alEffect.o)
 .ARM.extab.text.LoadReverbPreset
                0x00000000        0x0 D:\oxygine-sound\dependencies\openalext\lib\android\libopenal.a(alEffect.o)
 .note.GNU-stack
                0x00000000        0x0 D:\oxygine-sound\dependencies\openalext\lib\android\libopenal.a(alEffect.o)
 .text          0x00000000        0x0 D:\oxygine-sound\dependencies\openalext\lib\android\libopenal.a(alExtension.o)
 .data          0x00000000        0x0 D:\oxygine-sound\dependencies\openalext\lib\android\libopenal.a(alExtension.o)
 .bss           0x00000000        0x0 D:\oxygine-sound\dependencies\openalext\lib\android\libopenal.a(alExtension.o)
 .ARM.extab.text.alIsExtensionPresent
                0x00000000        0x0 D:\oxygine-sound\dependencies\openalext\lib\android\libopenal.a(alExtension.o)
 .ARM.extab.text.alGetProcAddress
                0x00000000        0x0 D:\oxygine-sound\dependencies\openalext\lib\android\libopenal.a(alExtension.o)
 .ARM.extab.text.alGetEnumValue
                0x00000000        0x0 D:\oxygine-sound\dependencies\openalext\lib\android\libopenal.a(alExtension.o)
 .note.GNU-stack
                0x00000000        0x0 D:\oxygine-sound\dependencies\openalext\lib\android\libopenal.a(alExtension.o)
 .text          0x00000000        0x0 D:\oxygine-sound\dependencies\openalext\lib\android\libopenal.a(alFilter.o)
 .data          0x00000000        0x0 D:\oxygine-sound\dependencies\openalext\lib\android\libopenal.a(alFilter.o)
 .bss           0x00000000        0x0 D:\oxygine-sound\dependencies\openalext\lib\android\libopenal.a(alFilter.o)
 .ARM.extab.text.null_GetParamfv
                0x00000000        0x0 D:\oxygine-sound\dependencies\openalext\lib\android\libopenal.a(alFilter.o)
 .ARM.extab.text.null_GetParamf
                0x00000000        0x0 D:\oxygine-sound\dependencies\openalext\lib\android\libopenal.a(alFilter.o)
 .ARM.extab.text.null_GetParamiv
                0x00000000        0x0 D:\oxygine-sound\dependencies\openalext\lib\android\libopenal.a(alFilter.o)
 .ARM.extab.text.null_GetParami
                0x00000000        0x0 D:\oxygine-sound\dependencies\openalext\lib\android\libopenal.a(alFilter.o)
 .ARM.extab.text.null_SetParamfv
                0x00000000        0x0 D:\oxygine-sound\dependencies\openalext\lib\android\libopenal.a(alFilter.o)
 .ARM.extab.text.null_SetParamf
                0x00000000        0x0 D:\oxygine-sound\dependencies\openalext\lib\android\libopenal.a(alFilter.o)
 .ARM.extab.text.null_SetParamiv
                0x00000000        0x0 D:\oxygine-sound\dependencies\openalext\lib\android\libopenal.a(alFilter.o)
 .ARM.extab.text.null_SetParami
                0x00000000        0x0 D:\oxygine-sound\dependencies\openalext\lib\android\libopenal.a(alFilter.o)
 .ARM.extab.text.lp_GetParamf
                0x00000000        0x0 D:\oxygine-sound\dependencies\openalext\lib\android\libopenal.a(alFilter.o)
 .ARM.extab.text.lp_GetParamfv
                0x00000000        0x0 D:\oxygine-sound\dependencies\openalext\lib\android\libopenal.a(alFilter.o)
 .ARM.extab.text.lp_GetParamiv
                0x00000000        0x0 D:\oxygine-sound\dependencies\openalext\lib\android\libopenal.a(alFilter.o)
 .ARM.extab.text.lp_GetParami
                0x00000000        0x0 D:\oxygine-sound\dependencies\openalext\lib\android\libopenal.a(alFilter.o)
 .ARM.extab.text.lp_SetParamiv
                0x00000000        0x0 D:\oxygine-sound\dependencies\openalext\lib\android\libopenal.a(alFilter.o)
 .ARM.extab.text.lp_SetParami
                0x00000000        0x0 D:\oxygine-sound\dependencies\openalext\lib\android\libopenal.a(alFilter.o)
 .ARM.extab.text.lp_SetParamf
                0x00000000        0x0 D:\oxygine-sound\dependencies\openalext\lib\android\libopenal.a(alFilter.o)
 .ARM.extab.text.lp_SetParamfv
                0x00000000        0x0 D:\oxygine-sound\dependencies\openalext\lib\android\libopenal.a(alFilter.o)
 .ARM.extab.text.alDeleteFilters
                0x00000000        0x0 D:\oxygine-sound\dependencies\openalext\lib\android\libopenal.a(alFilter.o)
 .ARM.extab.text.alGenFilters
                0x00000000        0x0 D:\oxygine-sound\dependencies\openalext\lib\android\libopenal.a(alFilter.o)
 .ARM.extab.text.alIsFilter
                0x00000000        0x0 D:\oxygine-sound\dependencies\openalext\lib\android\libopenal.a(alFilter.o)
 .ARM.extab.text.alFilteri
                0x00000000        0x0 D:\oxygine-sound\dependencies\openalext\lib\android\libopenal.a(alFilter.o)
 .ARM.extab.text.alFilteriv
                0x00000000        0x0 D:\oxygine-sound\dependencies\openalext\lib\android\libopenal.a(alFilter.o)
 .ARM.extab.text.alFilterf
                0x00000000        0x0 D:\oxygine-sound\dependencies\openalext\lib\android\libopenal.a(alFilter.o)
 .ARM.extab.text.alFilterfv
                0x00000000        0x0 D:\oxygine-sound\dependencies\openalext\lib\android\libopenal.a(alFilter.o)
 .ARM.extab.text.alGetFilteri
                0x00000000        0x0 D:\oxygine-sound\dependencies\openalext\lib\android\libopenal.a(alFilter.o)
 .ARM.extab.text.alGetFilteriv
                0x00000000        0x0 D:\oxygine-sound\dependencies\openalext\lib\android\libopenal.a(alFilter.o)
 .ARM.extab.text.alGetFilterf
                0x00000000        0x0 D:\oxygine-sound\dependencies\openalext\lib\android\libopenal.a(alFilter.o)
 .ARM.extab.text.alGetFilterfv
                0x00000000        0x0 D:\oxygine-sound\dependencies\openalext\lib\android\libopenal.a(alFilter.o)
 .ARM.extab.text.ReleaseALFilters
                0x00000000        0x0 D:\oxygine-sound\dependencies\openalext\lib\android\libopenal.a(alFilter.o)
 .note.GNU-stack
                0x00000000        0x0 D:\oxygine-sound\dependencies\openalext\lib\android\libopenal.a(alFilter.o)
 .text          0x00000000        0x0 D:\oxygine-sound\dependencies\openalext\lib\android\libopenal.a(alListener.o)
 .data          0x00000000        0x0 D:\oxygine-sound\dependencies\openalext\lib\android\libopenal.a(alListener.o)
 .bss           0x00000000        0x0 D:\oxygine-sound\dependencies\openalext\lib\android\libopenal.a(alListener.o)
 .ARM.extab.text.unlikely.aluNormalize
                0x00000000        0x0 D:\oxygine-sound\dependencies\openalext\lib\android\libopenal.a(alListener.o)
 .ARM.extab.text.alListener3f
                0x00000000        0x0 D:\oxygine-sound\dependencies\openalext\lib\android\libopenal.a(alListener.o)
 .ARM.extab.text.alListenerfv
                0x00000000        0x0 D:\oxygine-sound\dependencies\openalext\lib\android\libopenal.a(alListener.o)
 .ARM.extab.text.alListeneri
                0x00000000        0x0 D:\oxygine-sound\dependencies\openalext\lib\android\libopenal.a(alListener.o)
 .ARM.extab.text.alListener3i
                0x00000000        0x0 D:\oxygine-sound\dependencies\openalext\lib\android\libopenal.a(alListener.o)
 .ARM.extab.text.alListeneriv
                0x00000000        0x0 D:\oxygine-sound\dependencies\openalext\lib\android\libopenal.a(alListener.o)
 .ARM.extab.text.alGetListenerf
                0x00000000        0x0 D:\oxygine-sound\dependencies\openalext\lib\android\libopenal.a(alListener.o)
 .ARM.extab.text.alGetListener3f
                0x00000000        0x0 D:\oxygine-sound\dependencies\openalext\lib\android\libopenal.a(alListener.o)
 .ARM.extab.text.alGetListenerfv
                0x00000000        0x0 D:\oxygine-sound\dependencies\openalext\lib\android\libopenal.a(alListener.o)
 .ARM.extab.text.alGetListeneri
                0x00000000        0x0 D:\oxygine-sound\dependencies\openalext\lib\android\libopenal.a(alListener.o)
 .ARM.extab.text.alGetListener3i
                0x00000000        0x0 D:\oxygine-sound\dependencies\openalext\lib\android\libopenal.a(alListener.o)
 .ARM.extab.text.alGetListeneriv
                0x00000000        0x0 D:\oxygine-sound\dependencies\openalext\lib\android\libopenal.a(alListener.o)
 .note.GNU-stack
                0x00000000        0x0 D:\oxygine-sound\dependencies\openalext\lib\android\libopenal.a(alListener.o)
 .text          0x00000000        0x0 D:\oxygine-sound\dependencies\openalext\lib\android\libopenal.a(alState.o)
 .data          0x00000000        0x0 D:\oxygine-sound\dependencies\openalext\lib\android\libopenal.a(alState.o)
 .bss           0x00000000        0x0 D:\oxygine-sound\dependencies\openalext\lib\android\libopenal.a(alState.o)
 .ARM.extab.text.alEnable
                0x00000000        0x0 D:\oxygine-sound\dependencies\openalext\lib\android\libopenal.a(alState.o)
 .ARM.extab.text.alDisable
                0x00000000        0x0 D:\oxygine-sound\dependencies\openalext\lib\android\libopenal.a(alState.o)
 .ARM.extab.text.alIsEnabled
                0x00000000        0x0 D:\oxygine-sound\dependencies\openalext\lib\android\libopenal.a(alState.o)
 .ARM.extab.text.alGetBoolean
                0x00000000        0x0 D:\oxygine-sound\dependencies\openalext\lib\android\libopenal.a(alState.o)
 .ARM.extab.text.alGetInteger
                0x00000000        0x0 D:\oxygine-sound\dependencies\openalext\lib\android\libopenal.a(alState.o)
 .ARM.extab.text.alGetBooleanv
                0x00000000        0x0 D:\oxygine-sound\dependencies\openalext\lib\android\libopenal.a(alState.o)
 .ARM.extab.text.alGetDoublev
                0x00000000        0x0 D:\oxygine-sound\dependencies\openalext\lib\android\libopenal.a(alState.o)
 .ARM.extab.text.alGetFloatv
                0x00000000        0x0 D:\oxygine-sound\dependencies\openalext\lib\android\libopenal.a(alState.o)
 .ARM.extab.text.alGetIntegerv
                0x00000000        0x0 D:\oxygine-sound\dependencies\openalext\lib\android\libopenal.a(alState.o)
 .ARM.extab.text.alGetString
                0x00000000        0x0 D:\oxygine-sound\dependencies\openalext\lib\android\libopenal.a(alState.o)
 .ARM.extab.text.alDopplerFactor
                0x00000000        0x0 D:\oxygine-sound\dependencies\openalext\lib\android\libopenal.a(alState.o)
 .ARM.extab.text.alDopplerVelocity
                0x00000000        0x0 D:\oxygine-sound\dependencies\openalext\lib\android\libopenal.a(alState.o)
 .ARM.extab.text.alSpeedOfSound
                0x00000000        0x0 D:\oxygine-sound\dependencies\openalext\lib\android\libopenal.a(alState.o)
 .ARM.extab.text.alDistanceModel
                0x00000000        0x0 D:\oxygine-sound\dependencies\openalext\lib\android\libopenal.a(alState.o)
 .ARM.extab.text.alDeferUpdatesSOFT
                0x00000000        0x0 D:\oxygine-sound\dependencies\openalext\lib\android\libopenal.a(alState.o)
 .ARM.extab.text.alProcessUpdatesSOFT
                0x00000000        0x0 D:\oxygine-sound\dependencies\openalext\lib\android\libopenal.a(alState.o)
 .note.GNU-stack
                0x00000000        0x0 D:\oxygine-sound\dependencies\openalext\lib\android\libopenal.a(alState.o)
 .text          0x00000000        0x0 D:\oxygine-sound\dependencies\openalext\lib\android\libopenal.a(alcDedicated.o)
 .data          0x00000000        0x0 D:\oxygine-sound\dependencies\openalext\lib\android\libopenal.a(alcDedicated.o)
 .bss           0x00000000        0x0 D:\oxygine-sound\dependencies\openalext\lib\android\libopenal.a(alcDedicated.o)
 .ARM.extab.text.DedicatedDeviceUpdate
                0x00000000        0x0 D:\oxygine-sound\dependencies\openalext\lib\android\libopenal.a(alcDedicated.o)
 .ARM.extab.text.DedicatedProcess
                0x00000000        0x0 D:\oxygine-sound\dependencies\openalext\lib\android\libopenal.a(alcDedicated.o)
 .ARM.extab.text.DedicatedUpdate
                0x00000000        0x0 D:\oxygine-sound\dependencies\openalext\lib\android\libopenal.a(alcDedicated.o)
 .ARM.extab.text.DedicatedDestroy
                0x00000000        0x0 D:\oxygine-sound\dependencies\openalext\lib\android\libopenal.a(alcDedicated.o)
 .note.GNU-stack
                0x00000000        0x0 D:\oxygine-sound\dependencies\openalext\lib\android\libopenal.a(alcDedicated.o)
 .text          0x00000000        0x0 D:\oxygine-sound\dependencies\openalext\lib\android\libopenal.a(alcEcho.o)
 .data          0x00000000        0x0 D:\oxygine-sound\dependencies\openalext\lib\android\libopenal.a(alcEcho.o)
 .bss           0x00000000        0x0 D:\oxygine-sound\dependencies\openalext\lib\android\libopenal.a(alcEcho.o)
 .ARM.extab.text.EchoProcess
                0x00000000        0x0 D:\oxygine-sound\dependencies\openalext\lib\android\libopenal.a(alcEcho.o)
 .ARM.extab.text.EchoDeviceUpdate
                0x00000000        0x0 D:\oxygine-sound\dependencies\openalext\lib\android\libopenal.a(alcEcho.o)
 .ARM.extab.text.EchoDestroy
                0x00000000        0x0 D:\oxygine-sound\dependencies\openalext\lib\android\libopenal.a(alcEcho.o)
 .note.GNU-stack
                0x00000000        0x0 D:\oxygine-sound\dependencies\openalext\lib\android\libopenal.a(alcEcho.o)
 .text          0x00000000        0x0 D:\oxygine-sound\dependencies\openalext\lib\android\libopenal.a(alcModulator.o)
 .data          0x00000000        0x0 D:\oxygine-sound\dependencies\openalext\lib\android\libopenal.a(alcModulator.o)
 .bss           0x00000000        0x0 D:\oxygine-sound\dependencies\openalext\lib\android\libopenal.a(alcModulator.o)
 .ARM.extab.text.ModulatorDeviceUpdate
                0x00000000        0x0 D:\oxygine-sound\dependencies\openalext\lib\android\libopenal.a(alcModulator.o)
 .ARM.extab.text.ModulatorProcess
                0x00000000        0x0 D:\oxygine-sound\dependencies\openalext\lib\android\libopenal.a(alcModulator.o)
 .ARM.extab.text.ModulatorUpdate
                0x00000000        0x0 D:\oxygine-sound\dependencies\openalext\lib\android\libopenal.a(alcModulator.o)
 .ARM.extab.text.ModulatorDestroy
                0x00000000        0x0 D:\oxygine-sound\dependencies\openalext\lib\android\libopenal.a(alcModulator.o)
 .note.GNU-stack
                0x00000000        0x0 D:\oxygine-sound\dependencies\openalext\lib\android\libopenal.a(alcModulator.o)
 .text          0x00000000        0x0 D:\oxygine-sound\dependencies\openalext\lib\android\libopenal.a(alcThread.o)
 .data          0x00000000        0x0 D:\oxygine-sound\dependencies\openalext\lib\android\libopenal.a(alcThread.o)
 .bss           0x00000000        0x0 D:\oxygine-sound\dependencies\openalext\lib\android\libopenal.a(alcThread.o)
 .ARM.extab.text.StarterFunc
                0x00000000        0x0 D:\oxygine-sound\dependencies\openalext\lib\android\libopenal.a(alcThread.o)
 .ARM.extab.text.StartThread
                0x00000000        0x0 D:\oxygine-sound\dependencies\openalext\lib\android\libopenal.a(alcThread.o)
 .ARM.extab.text.StopThread
                0x00000000        0x0 D:\oxygine-sound\dependencies\openalext\lib\android\libopenal.a(alcThread.o)
 .note.GNU-stack
                0x00000000        0x0 D:\oxygine-sound\dependencies\openalext\lib\android\libopenal.a(alcThread.o)
 .data          0x00000000        0x0 d:/android/android-ndk-r8e/toolchains/arm-linux-androideabi-4.4.3/prebuilt/windows/bin/../lib/gcc/arm-linux-androideabi/4.4.3\libgcc.a(_udivsi3.o)
 .bss           0x00000000        0x0 d:/android/android-ndk-r8e/toolchains/arm-linux-androideabi-4.4.3/prebuilt/windows/bin/../lib/gcc/arm-linux-androideabi/4.4.3\libgcc.a(_udivsi3.o)
 .note.GNU-stack
                0x00000000        0x0 d:/android/android-ndk-r8e/toolchains/arm-linux-androideabi-4.4.3/prebuilt/windows/bin/../lib/gcc/arm-linux-androideabi/4.4.3\libgcc.a(_udivsi3.o)
 .data          0x00000000        0x0 d:/android/android-ndk-r8e/toolchains/arm-linux-androideabi-4.4.3/prebuilt/windows/bin/../lib/gcc/arm-linux-androideabi/4.4.3\libgcc.a(_divsi3.o)
 .bss           0x00000000        0x0 d:/android/android-ndk-r8e/toolchains/arm-linux-androideabi-4.4.3/prebuilt/windows/bin/../lib/gcc/arm-linux-androideabi/4.4.3\libgcc.a(_divsi3.o)
 .note.GNU-stack
                0x00000000        0x0 d:/android/android-ndk-r8e/toolchains/arm-linux-androideabi-4.4.3/prebuilt/windows/bin/../lib/gcc/arm-linux-androideabi/4.4.3\libgcc.a(_divsi3.o)
 .data          0x00000000        0x0 d:/android/android-ndk-r8e/toolchains/arm-linux-androideabi-4.4.3/prebuilt/windows/bin/../lib/gcc/arm-linux-androideabi/4.4.3\libgcc.a(_aeabi_ldivmod.o)
 .bss           0x00000000        0x0 d:/android/android-ndk-r8e/toolchains/arm-linux-androideabi-4.4.3/prebuilt/windows/bin/../lib/gcc/arm-linux-androideabi/4.4.3\libgcc.a(_aeabi_ldivmod.o)
 .note.GNU-stack
                0x00000000        0x0 d:/android/android-ndk-r8e/toolchains/arm-linux-androideabi-4.4.3/prebuilt/windows/bin/../lib/gcc/arm-linux-androideabi/4.4.3\libgcc.a(_aeabi_ldivmod.o)
 .data          0x00000000        0x0 d:/android/android-ndk-r8e/toolchains/arm-linux-androideabi-4.4.3/prebuilt/windows/bin/../lib/gcc/arm-linux-androideabi/4.4.3\libgcc.a(_aeabi_uldivmod.o)
 .bss           0x00000000        0x0 d:/android/android-ndk-r8e/toolchains/arm-linux-androideabi-4.4.3/prebuilt/windows/bin/../lib/gcc/arm-linux-androideabi/4.4.3\libgcc.a(_aeabi_uldivmod.o)
 .note.GNU-stack
                0x00000000        0x0 d:/android/android-ndk-r8e/toolchains/arm-linux-androideabi-4.4.3/prebuilt/windows/bin/../lib/gcc/arm-linux-androideabi/4.4.3\libgcc.a(_aeabi_uldivmod.o)
 .data          0x00000000        0x0 d:/android/android-ndk-r8e/toolchains/arm-linux-androideabi-4.4.3/prebuilt/windows/bin/../lib/gcc/arm-linux-androideabi/4.4.3\libgcc.a(_dvmd_lnx.o)
 .bss           0x00000000        0x0 d:/android/android-ndk-r8e/toolchains/arm-linux-androideabi-4.4.3/prebuilt/windows/bin/../lib/gcc/arm-linux-androideabi/4.4.3\libgcc.a(_dvmd_lnx.o)
 .note.GNU-stack
                0x00000000        0x0 d:/android/android-ndk-r8e/toolchains/arm-linux-androideabi-4.4.3/prebuilt/windows/bin/../lib/gcc/arm-linux-androideabi/4.4.3\libgcc.a(_dvmd_lnx.o)
 .data          0x00000000        0x0 d:/android/android-ndk-r8e/toolchains/arm-linux-androideabi-4.4.3/prebuilt/windows/bin/../lib/gcc/arm-linux-androideabi/4.4.3\libgcc.a(bpabi.o)
 .bss           0x00000000        0x0 d:/android/android-ndk-r8e/toolchains/arm-linux-androideabi-4.4.3/prebuilt/windows/bin/../lib/gcc/arm-linux-androideabi/4.4.3\libgcc.a(bpabi.o)
 .ARM.extab     0x00000000        0x0 d:/android/android-ndk-r8e/toolchains/arm-linux-androideabi-4.4.3/prebuilt/windows/bin/../lib/gcc/arm-linux-androideabi/4.4.3\libgcc.a(bpabi.o)
 .note.GNU-stack
                0x00000000        0x0 d:/android/android-ndk-r8e/toolchains/arm-linux-androideabi-4.4.3/prebuilt/windows/bin/../lib/gcc/arm-linux-androideabi/4.4.3\libgcc.a(bpabi.o)
 .data          0x00000000        0x0 d:/android/android-ndk-r8e/toolchains/arm-linux-androideabi-4.4.3/prebuilt/windows/bin/../lib/gcc/arm-linux-androideabi/4.4.3\libgcc.a(unwind-arm.o)
 .bss           0x00000000        0x0 d:/android/android-ndk-r8e/toolchains/arm-linux-androideabi-4.4.3/prebuilt/windows/bin/../lib/gcc/arm-linux-androideabi/4.4.3\libgcc.a(unwind-arm.o)
 .note.GNU-stack
                0x00000000        0x0 d:/android/android-ndk-r8e/toolchains/arm-linux-androideabi-4.4.3/prebuilt/windows/bin/../lib/gcc/arm-linux-androideabi/4.4.3\libgcc.a(unwind-arm.o)
 .data          0x00000000        0x0 d:/android/android-ndk-r8e/toolchains/arm-linux-androideabi-4.4.3/prebuilt/windows/bin/../lib/gcc/arm-linux-androideabi/4.4.3\libgcc.a(libunwind.o)
 .bss           0x00000000        0x0 d:/android/android-ndk-r8e/toolchains/arm-linux-androideabi-4.4.3/prebuilt/windows/bin/../lib/gcc/arm-linux-androideabi/4.4.3\libgcc.a(libunwind.o)
 .note.GNU-stack
                0x00000000        0x0 d:/android/android-ndk-r8e/toolchains/arm-linux-androideabi-4.4.3/prebuilt/windows/bin/../lib/gcc/arm-linux-androideabi/4.4.3\libgcc.a(libunwind.o)
 .data          0x00000000        0x0 d:/android/android-ndk-r8e/toolchains/arm-linux-androideabi-4.4.3/prebuilt/windows/bin/../lib/gcc/arm-linux-androideabi/4.4.3\libgcc.a(pr-support.o)
 .bss           0x00000000        0x0 d:/android/android-ndk-r8e/toolchains/arm-linux-androideabi-4.4.3/prebuilt/windows/bin/../lib/gcc/arm-linux-androideabi/4.4.3\libgcc.a(pr-support.o)
 .ARM.extab     0x00000000        0x0 d:/android/android-ndk-r8e/toolchains/arm-linux-androideabi-4.4.3/prebuilt/windows/bin/../lib/gcc/arm-linux-androideabi/4.4.3\libgcc.a(pr-support.o)
 .note.GNU-stack
                0x00000000        0x0 d:/android/android-ndk-r8e/toolchains/arm-linux-androideabi-4.4.3/prebuilt/windows/bin/../lib/gcc/arm-linux-androideabi/4.4.3\libgcc.a(pr-support.o)
 .data          0x00000000        0x0 d:/android/android-ndk-r8e/toolchains/arm-linux-androideabi-4.4.3/prebuilt/windows/bin/../lib/gcc/arm-linux-androideabi/4.4.3\libgcc.a(_divdi3.o)
 .bss           0x00000000        0x0 d:/android/android-ndk-r8e/toolchains/arm-linux-androideabi-4.4.3/prebuilt/windows/bin/../lib/gcc/arm-linux-androideabi/4.4.3\libgcc.a(_divdi3.o)
 .ARM.extab     0x00000000        0x0 d:/android/android-ndk-r8e/toolchains/arm-linux-androideabi-4.4.3/prebuilt/windows/bin/../lib/gcc/arm-linux-androideabi/4.4.3\libgcc.a(_divdi3.o)
 .note.GNU-stack
                0x00000000        0x0 d:/android/android-ndk-r8e/toolchains/arm-linux-androideabi-4.4.3/prebuilt/windows/bin/../lib/gcc/arm-linux-androideabi/4.4.3\libgcc.a(_divdi3.o)
 .data          0x00000000        0x0 d:/android/android-ndk-r8e/toolchains/arm-linux-androideabi-4.4.3/prebuilt/windows/bin/../lib/gcc/arm-linux-androideabi/4.4.3\libgcc.a(_udivdi3.o)
 .bss           0x00000000        0x0 d:/android/android-ndk-r8e/toolchains/arm-linux-androideabi-4.4.3/prebuilt/windows/bin/../lib/gcc/arm-linux-androideabi/4.4.3\libgcc.a(_udivdi3.o)
 .ARM.extab     0x00000000        0x0 d:/android/android-ndk-r8e/toolchains/arm-linux-androideabi-4.4.3/prebuilt/windows/bin/../lib/gcc/arm-linux-androideabi/4.4.3\libgcc.a(_udivdi3.o)
 .note.GNU-stack
                0x00000000        0x0 d:/android/android-ndk-r8e/toolchains/arm-linux-androideabi-4.4.3/prebuilt/windows/bin/../lib/gcc/arm-linux-androideabi/4.4.3\libgcc.a(_udivdi3.o)
 .text          0x00000000        0x0 d:/android/android-ndk-r8e/platforms/android-9/arch-arm/usr/lib/crtend_so.o
 .data          0x00000000        0x0 d:/android/android-ndk-r8e/platforms/android-9/arch-arm/usr/lib/crtend_so.o
 .bss           0x00000000        0x0 d:/android/android-ndk-r8e/platforms/android-9/arch-arm/usr/lib/crtend_so.o
 .note.GNU-stack
                0x00000000        0x0 d:/android/android-ndk-r8e/platforms/android-9/arch-arm/usr/lib/crtend_so.o

Memory Configuration

Name             Origin             Length             Attributes
*default*        0x00000000         0xffffffff

Linker script and memory map

LOAD d:/android/android-ndk-r8e/platforms/android-9/arch-arm/usr/lib/crtbegin_so.o
LOAD release\openalext_platform.os
LOAD release\openalext.os
LOAD release\openalext_register.os
LOAD D:\oxygine-sound\dependencies\openalext\lib\android\libopenal.a
LOAD D:\android\android-ndk-r8e\platforms\android-9\arch-arm\usr\lib/libOpenSLES.so
LOAD D:\marmalade\7.1\s3e\edk\lib\android\libedk.a
LOAD D:\marmalade\7.1\s3e\edk\lib\android/libplaceholderplaceholderplaceholderplaceholderplaceholder.so
LOAD D:\android\android-ndk-r8e\platforms\android-9\arch-arm\usr\lib/liblog.so
LOAD D:\android\android-ndk-r8e\sources\cxx-stl\gnu-libstdc++\4.4.3\libs\armeabi\libgnustl_static.a
LOAD d:/android/android-ndk-r8e/toolchains/arm-linux-androideabi-4.4.3/prebuilt/windows/bin/../lib/gcc/arm-linux-androideabi/4.4.3\libgcc.a
LOAD D:\android\android-ndk-r8e\platforms\android-9\arch-arm\usr\lib/libstdc++.so
LOAD D:\android\android-ndk-r8e\platforms\android-9\arch-arm\usr\lib/libm.so
LOAD D:\android\android-ndk-r8e\platforms\android-9\arch-arm\usr\lib/libc.so
LOAD d:/android/android-ndk-r8e/toolchains/arm-linux-androideabi-4.4.3/prebuilt/windows/bin/../lib/gcc/arm-linux-androideabi/4.4.3\libgcc.a
LOAD D:\android\android-ndk-r8e\platforms\android-9\arch-arm\usr\lib/libc.so
LOAD D:\android\android-ndk-r8e\platforms\android-9\arch-arm\usr\lib/libdl.so
LOAD d:/android/android-ndk-r8e/toolchains/arm-linux-androideabi-4.4.3/prebuilt/windows/bin/../lib/gcc/arm-linux-androideabi/4.4.3\libgcc.a
LOAD d:/android/android-ndk-r8e/platforms/android-9/arch-arm/usr/lib/crtend_so.o
                0x000000f4                . = (0x0 + SIZEOF_HEADERS)

.note.gnu.build-id
 *(.note.gnu.build-id)

.hash           0x000000f4      0xa7c
 *(.hash)
 .hash          0x000000f4      0xa7c d:/android/android-ndk-r8e/platforms/android-9/arch-arm/usr/lib/crtbegin_so.o

.gnu.hash
 *(.gnu.hash)

.dynsym         0x00000b70     0x1960
 *(.dynsym)
 .dynsym        0x00000b70     0x1960 d:/android/android-ndk-r8e/platforms/android-9/arch-arm/usr/lib/crtbegin_so.o

.dynstr         0x000024d0     0x17be
 *(.dynstr)
 .dynstr        0x000024d0     0x17be d:/android/android-ndk-r8e/platforms/android-9/arch-arm/usr/lib/crtbegin_so.o

.gnu.version    0x00003c8e        0x0
 *(.gnu.version)
 .gnu.version   0x00000000        0x0 d:/android/android-ndk-r8e/platforms/android-9/arch-arm/usr/lib/crtbegin_so.o

.gnu.version_d  0x00003c90        0x0 load address 0x00003c8e
 *(.gnu.version_d)
 .gnu.version_d
                0x00000000        0x0 d:/android/android-ndk-r8e/platforms/android-9/arch-arm/usr/lib/crtbegin_so.o

.gnu.version_r  0x00003c90        0x0 load address 0x00003c8e
 *(.gnu.version_r)
 .gnu.version_r
                0x00000000        0x0 d:/android/android-ndk-r8e/platforms/android-9/arch-arm/usr/lib/crtbegin_so.o

.rel.dyn        0x00003c90     0x13b8
 *(.rel.init)
 *(.rel.text .rel.text.* .rel.gnu.linkonce.t.*)
 *(.rel.fini)
 *(.rel.rodata .rel.rodata.* .rel.gnu.linkonce.r.*)
 *(.rel.data.rel.ro* .rel.gnu.linkonce.d.rel.ro.*)
 .rel.data.rel.ro
                0x00003c90      0x8a0 d:/android/android-ndk-r8e/platforms/android-9/arch-arm/usr/lib/crtbegin_so.o
 .rel.data.rel.ro.local
                0x00004530      0x8f0 d:/android/android-ndk-r8e/platforms/android-9/arch-arm/usr/lib/crtbegin_so.o
 *(.rel.data .rel.data.* .rel.gnu.linkonce.d.*)
 .rel.data.rel  0x00004e20       0x60 d:/android/android-ndk-r8e/platforms/android-9/arch-arm/usr/lib/crtbegin_so.o
 *(.rel.tdata .rel.tdata.* .rel.gnu.linkonce.td.*)
 *(.rel.tbss .rel.tbss.* .rel.gnu.linkonce.tb.*)
 *(.rel.ctors)
 *(.rel.dtors)
 *(.rel.got)
 .rel.got       0x00004e80      0x1b0 d:/android/android-ndk-r8e/platforms/android-9/arch-arm/usr/lib/crtbegin_so.o
 *(.rel.bss .rel.bss.* .rel.gnu.linkonce.b.*)
 .rel.fini_array
                0x00005030       0x10 d:/android/android-ndk-r8e/platforms/android-9/arch-arm/usr/lib/crtbegin_so.o
 .rel.init_array
                0x00005040        0x8 d:/android/android-ndk-r8e/platforms/android-9/arch-arm/usr/lib/crtbegin_so.o

.rela.dyn
 *(.rela.init)
 *(.rela.text .rela.text.* .rela.gnu.linkonce.t.*)
 *(.rela.fini)
 *(.rela.rodata .rela.rodata.* .rela.gnu.linkonce.r.*)
 *(.rela.data .rela.data.* .rela.gnu.linkonce.d.*)
 *(.rela.tdata .rela.tdata.* .rela.gnu.linkonce.td.*)
 *(.rela.tbss .rela.tbss.* .rela.gnu.linkonce.tb.*)
 *(.rela.ctors)
 *(.rela.dtors)
 *(.rela.got)
 *(.rela.bss .rela.bss.* .rela.gnu.linkonce.b.*)

.rel.plt        0x00005048      0x260
 *(.rel.plt)
 .rel.plt       0x00005048      0x260 d:/android/android-ndk-r8e/platforms/android-9/arch-arm/usr/lib/crtbegin_so.o

.rela.plt
 *(.rela.plt)

.init
 *(.init)

.plt            0x000052a8      0x3c8
 *(.plt)
 .plt           0x000052a8      0x3c8 d:/android/android-ndk-r8e/platforms/android-9/arch-arm/usr/lib/crtbegin_so.o

.text           0x00005670    0x184c8
 *(.text .stub .text.* .gnu.linkonce.t.*)
 .text.exit     0x00005670       0x10 d:/android/android-ndk-r8e/platforms/android-9/arch-arm/usr/lib/crtbegin_so.o
                0x00005670                __on_dlclose
 .text._Z22openalextInit_platformv
                0x00005680        0x8 release\openalext_platform.os
                0x00005680                openalextInit_platform()
 .text._Z27openalextTerminate_platformv
                0x00005688        0x4 release\openalext_platform.os
                0x00005688                openalextTerminate_platform()
 .text._Z30_alcGetCurrentContext_platformv
                0x0000568c        0x4 release\openalext_platform.os
                0x0000568c                _alcGetCurrentContext_platform()
 .text._Z27_alcDestroyContext_platformP11_ALCcontext
                0x00005690        0x4 release\openalext_platform.os
                0x00005690                _alcDestroyContext_platform(_ALCcontext*)
 .text._Z27_alcSuspendContext_platformP11_ALCcontext
                0x00005694        0x4 release\openalext_platform.os
                0x00005694                _alcSuspendContext_platform(_ALCcontext*)
 .text._Z27_alcProcessContext_platformP11_ALCcontext
                0x00005698        0x4 release\openalext_platform.os
                0x00005698                _alcProcessContext_platform(_ALCcontext*)
 .text._Z31_alcMakeContextCurrent_platformP11_ALCcontext
                0x0000569c        0x4 release\openalext_platform.os
                0x0000569c                _alcMakeContextCurrent_platform(_ALCcontext*)
 .text._Z26_alcCreateContext_platformP10_ALCdevicePKi
                0x000056a0        0x4 release\openalext_platform.os
                0x000056a0                _alcCreateContext_platform(_ALCdevice*, int const*)
 .text._Z24_alcCloseDevice_platformP10_ALCdevice
                0x000056a4        0x4 release\openalext_platform.os
                0x000056a4                _alcCloseDevice_platform(_ALCdevice*)
 .text._Z23_alcOpenDevice_platformPKc
                0x000056a8        0x4 release\openalext_platform.os
                0x000056a8                _alcOpenDevice_platform(char const*)
 .text._Z22_alBufferData_platformjjPKvii
                0x000056ac        0x4 release\openalext_platform.os
                0x000056ac                _alBufferData_platform(unsigned int, unsigned int, void const*, int, int)
 .text._Z25_alDeleteBuffers_platformiPKj
                0x000056b0        0x4 release\openalext_platform.os
                0x000056b0                _alDeleteBuffers_platform(int, unsigned int const*)
 .text._Z22_alGenBuffers_platformiPj
                0x000056b4        0x4 release\openalext_platform.os
                0x000056b4                _alGenBuffers_platform(int, unsigned int*)
 .text._Z25_alDeleteSources_platformiPKj
                0x000056b8        0x4 release\openalext_platform.os
                0x000056b8                _alDeleteSources_platform(int, unsigned int const*)
 .text._Z22_alGenSources_platformiPj
                0x000056bc        0x4 release\openalext_platform.os
                0x000056bc                _alGenSources_platform(int, unsigned int*)
 .text._Z23_alSourcePause_platformj
                0x000056c0        0x4 release\openalext_platform.os
                0x000056c0                _alSourcePause_platform(unsigned int)
 .text._Z22_alSourceStop_platformj
                0x000056c4        0x4 release\openalext_platform.os
                0x000056c4                _alSourceStop_platform(unsigned int)
 .text._Z22_alSourcePlay_platformj
                0x000056c8        0x4 release\openalext_platform.os
                0x000056c8                _alSourcePlay_platform(unsigned int)
 .text._Z19_alSourcei_platformjji
                0x000056cc        0x4 release\openalext_platform.os
                0x000056cc                _alSourcei_platform(unsigned int, unsigned int, int)
 .text._Z19_alSourcef_platformjjf
                0x000056d0        0x4 release\openalext_platform.os
                0x000056d0                _alSourcef_platform(unsigned int, unsigned int, float)
 .text._Z22_alGetSourcef_platformjjPf
                0x000056d4        0x4 release\openalext_platform.os
                0x000056d4                _alGetSourcef_platform(unsigned int, unsigned int, float*)
 .text._Z22_alGetSourcei_platformjjPi
                0x000056d8        0x4 release\openalext_platform.os
                0x000056d8                _alGetSourcei_platform(unsigned int, unsigned int, int*)
 .text._Z32_alSourceUnqueueBuffers_platformjiPj
                0x000056dc        0x4 release\openalext_platform.os
                0x000056dc                _alSourceUnqueueBuffers_platform(unsigned int, int, unsigned int*)
 .text._Z30_alSourceQueueBuffers_platformjiPKj
                0x000056e0        0x4 release\openalext_platform.os
                0x000056e0                _alSourceQueueBuffers_platform(unsigned int, int, unsigned int const*)
 .text._Z20_alGetError_platformv
                0x000056e4        0x4 release\openalext_platform.os
                0x000056e4                _alGetError_platform()
 .text._alcGetCurrentContext
                0x000056e8        0x4 release\openalext.os
                0x000056e8                _alcGetCurrentContext
 .text._alcDestroyContext
                0x000056ec        0x4 release\openalext.os
                0x000056ec                _alcDestroyContext
 .text._alcSuspendContext
                0x000056f0        0x4 release\openalext.os
                0x000056f0                _alcSuspendContext
 .text._alcProcessContext
                0x000056f4        0x4 release\openalext.os
                0x000056f4                _alcProcessContext
 .text._alcMakeContextCurrent
                0x000056f8        0x4 release\openalext.os
                0x000056f8                _alcMakeContextCurrent
 .text._alcCreateContext
                0x000056fc        0x4 release\openalext.os
                0x000056fc                _alcCreateContext
 .text._alcCloseDevice
                0x00005700        0x4 release\openalext.os
                0x00005700                _alcCloseDevice
 .text._alcOpenDevice
                0x00005704        0x4 release\openalext.os
                0x00005704                _alcOpenDevice
 .text._alBufferData
                0x00005708        0x4 release\openalext.os
                0x00005708                _alBufferData
 .text._alDeleteBuffers
                0x0000570c        0x4 release\openalext.os
                0x0000570c                _alDeleteBuffers
 .text._alGenBuffers
                0x00005710        0x4 release\openalext.os
                0x00005710                _alGenBuffers
 .text._alDeleteSources
                0x00005714        0x4 release\openalext.os
                0x00005714                _alDeleteSources
 .text._alGenSources
                0x00005718        0x4 release\openalext.os
                0x00005718                _alGenSources
 .text._alSourcePause
                0x0000571c        0x4 release\openalext.os
                0x0000571c                _alSourcePause
 .text._alSourceStop
                0x00005720        0x4 release\openalext.os
                0x00005720                _alSourceStop
 .text._alSourcePlay
                0x00005724        0x4 release\openalext.os
                0x00005724                _alSourcePlay
 .text._alSourcei
                0x00005728        0x4 release\openalext.os
                0x00005728                _alSourcei
 .text._alSourcef
                0x0000572c        0x4 release\openalext.os
                0x0000572c                _alSourcef
 .text._alGetSourcef
                0x00005730        0x4 release\openalext.os
                0x00005730                _alGetSourcef
 .text._alGetSourcei
                0x00005734        0x4 release\openalext.os
                0x00005734                _alGetSourcei
 .text._alSourceUnqueueBuffers
                0x00005738        0x4 release\openalext.os
                0x00005738                _alSourceUnqueueBuffers
 .text._alSourceQueueBuffers
                0x0000573c        0x4 release\openalext.os
                0x0000573c                _alSourceQueueBuffers
 .text._alGetError
                0x00005740        0x4 release\openalext.os
                0x00005740                _alGetError
 .text._Z18openalextTerminatev
                0x00005744        0x4 release\openalext.os
                0x00005744                openalextTerminate()
 .text._Z13openalextInitv
                0x00005748        0x4 release\openalext.os
                0x00005748                openalextInit()
 .text.RegisterExt
                0x0000574c      0x214 release\openalext_register.os
                0x0000574c                RegisterExt
 .text.EncodeMuLaw
                0x00005960       0x4c D:\oxygine-sound\dependencies\openalext\lib\android\libopenal.a(alBuffer.o)
 .text.EncodeALaw
                0x000059ac       0x58 D:\oxygine-sound\dependencies\openalext\lib\android\libopenal.a(alBuffer.o)
 .text.DecodeIMA4Block
                0x00005a04      0x184 D:\oxygine-sound\dependencies\openalext\lib\android\libopenal.a(alBuffer.o)
 .text.EncodeIMA4Block
                0x00005b88      0x208 D:\oxygine-sound\dependencies\openalext\lib\android\libopenal.a(alBuffer.o)
 .text.DecodeByte3
                0x00005d90       0x34 D:\oxygine-sound\dependencies\openalext\lib\android\libopenal.a(alBuffer.o)
 .text.DecodeUByte3
                0x00005dc4       0x30 D:\oxygine-sound\dependencies\openalext\lib\android\libopenal.a(alBuffer.o)
 .text.Convert_ALbyte_ALima4
                0x00005df4       0x70 D:\oxygine-sound\dependencies\openalext\lib\android\libopenal.a(alBuffer.o)
 .text.Convert_ALubyte_ALima4
                0x00005e64       0x72 D:\oxygine-sound\dependencies\openalext\lib\android\libopenal.a(alBuffer.o)
 .text.Convert_ALshort_ALima4
                0x00005ed6       0x6c D:\oxygine-sound\dependencies\openalext\lib\android\libopenal.a(alBuffer.o)
 .text.Convert_ALushort_ALima4
                0x00005f42       0x70 D:\oxygine-sound\dependencies\openalext\lib\android\libopenal.a(alBuffer.o)
 .text.Convert_ALint_ALima4
                0x00005fb2       0x7c D:\oxygine-sound\dependencies\openalext\lib\android\libopenal.a(alBuffer.o)
 .text.Convert_ALuint_ALima4
                0x0000602e       0x80 D:\oxygine-sound\dependencies\openalext\lib\android\libopenal.a(alBuffer.o)
 *fill*         0x000060ae        0x2 00000000
 .text.Convert_ALfloat_ALima4
                0x000060b0       0x94 D:\oxygine-sound\dependencies\openalext\lib\android\libopenal.a(alBuffer.o)
 *fill*         0x00006144        0x4 00000000
 .text.Convert_ALdouble_ALima4
                0x00006148       0x98 D:\oxygine-sound\dependencies\openalext\lib\android\libopenal.a(alBuffer.o)
 .text.Convert_ALmulaw_ALima4
                0x000061e0       0x82 D:\oxygine-sound\dependencies\openalext\lib\android\libopenal.a(alBuffer.o)
 .text.Convert_ALalaw_ALima4
                0x00006262       0x82 D:\oxygine-sound\dependencies\openalext\lib\android\libopenal.a(alBuffer.o)
 .text.Convert_ALima4_ALbyte
                0x000062e4       0x76 D:\oxygine-sound\dependencies\openalext\lib\android\libopenal.a(alBuffer.o)
 .text.Convert_ALima4_ALubyte
                0x0000635a       0x78 D:\oxygine-sound\dependencies\openalext\lib\android\libopenal.a(alBuffer.o)
 .text.Convert_ALima4_ALshort
                0x000063d2       0x74 D:\oxygine-sound\dependencies\openalext\lib\android\libopenal.a(alBuffer.o)
 .text.Convert_ALima4_ALushort
                0x00006446       0x78 D:\oxygine-sound\dependencies\openalext\lib\android\libopenal.a(alBuffer.o)
 .text.Convert_ALima4_ALint
                0x000064be       0x7c D:\oxygine-sound\dependencies\openalext\lib\android\libopenal.a(alBuffer.o)
 .text.Convert_ALima4_ALuint
                0x0000653a       0x80 D:\oxygine-sound\dependencies\openalext\lib\android\libopenal.a(alBuffer.o)
 *fill*         0x000065ba        0x2 00000000
 .text.Convert_ALima4_ALfloat
                0x000065bc       0xbc D:\oxygine-sound\dependencies\openalext\lib\android\libopenal.a(alBuffer.o)
 .text.Convert_ALima4_ALdouble
                0x00006678       0xc0 D:\oxygine-sound\dependencies\openalext\lib\android\libopenal.a(alBuffer.o)
 .text.Convert_ALima4_ALmulaw
                0x00006738       0x8c D:\oxygine-sound\dependencies\openalext\lib\android\libopenal.a(alBuffer.o)
 .text.Convert_ALima4_ALalaw
                0x000067c4       0x8c D:\oxygine-sound\dependencies\openalext\lib\android\libopenal.a(alBuffer.o)
 .text.Convert_ALima4_ALbyte3
                0x00006850       0xaa D:\oxygine-sound\dependencies\openalext\lib\android\libopenal.a(alBuffer.o)
 .text.Convert_ALima4_ALubyte3
                0x000068fa       0xae D:\oxygine-sound\dependencies\openalext\lib\android\libopenal.a(alBuffer.o)
 .text.EncodeByte3
                0x000069a8       0x54 D:\oxygine-sound\dependencies\openalext\lib\android\libopenal.a(alBuffer.o)
 .text.Convert_ALbyte3_ALima4
                0x000069fc       0xcc D:\oxygine-sound\dependencies\openalext\lib\android\libopenal.a(alBuffer.o)
 .text.EncodeUByte3
                0x00006ac8       0x54 D:\oxygine-sound\dependencies\openalext\lib\android\libopenal.a(alBuffer.o)
 .text.Convert_ALubyte3_ALima4
                0x00006b1c       0xd2 D:\oxygine-sound\dependencies\openalext\lib\android\libopenal.a(alBuffer.o)
 *fill*         0x00006bee        0x2 00000000
 .text.Convert_ALubyte3
                0x00006bf0      0x658 D:\oxygine-sound\dependencies\openalext\lib\android\libopenal.a(alBuffer.o)
 .text.ConvertData
                0x00007248     0x2ab0 D:\oxygine-sound\dependencies\openalext\lib\android\libopenal.a(alBuffer.o)
 .text.alDeleteBuffers
                0x00009cf8       0xaa D:\oxygine-sound\dependencies\openalext\lib\android\libopenal.a(alBuffer.o)
                0x00009cf8                alDeleteBuffers
 .text.alGenBuffers
                0x00009da2       0xb2 D:\oxygine-sound\dependencies\openalext\lib\android\libopenal.a(alBuffer.o)
                0x00009da2                alGenBuffers
 .text.alIsBuffer
                0x00009e54       0x36 D:\oxygine-sound\dependencies\openalext\lib\android\libopenal.a(alBuffer.o)
                0x00009e54                alIsBuffer
 *fill*         0x00009e8a        0x2 00000000
 .text.alIsBufferFormatSupportedSOFT
                0x00009e8c       0x38 D:\oxygine-sound\dependencies\openalext\lib\android\libopenal.a(alBuffer.o)
                0x00009e8c                alIsBufferFormatSupportedSOFT
 .text.alBufferf
                0x00009ec4       0x38 D:\oxygine-sound\dependencies\openalext\lib\android\libopenal.a(alBuffer.o)
                0x00009ec4                alBufferf
 .text.alBuffer3f
                0x00009efc       0x38 D:\oxygine-sound\dependencies\openalext\lib\android\libopenal.a(alBuffer.o)
                0x00009efc                alBuffer3f
 .text.alBufferfv
                0x00009f34       0x44 D:\oxygine-sound\dependencies\openalext\lib\android\libopenal.a(alBuffer.o)
                0x00009f34                alBufferfv
 .text.alBufferi
                0x00009f78       0x38 D:\oxygine-sound\dependencies\openalext\lib\android\libopenal.a(alBuffer.o)
                0x00009f78                alBufferi
 .text.alBuffer3i
                0x00009fb0       0x38 D:\oxygine-sound\dependencies\openalext\lib\android\libopenal.a(alBuffer.o)
                0x00009fb0                alBuffer3i
 .text.alBufferiv
                0x00009fe8       0x92 D:\oxygine-sound\dependencies\openalext\lib\android\libopenal.a(alBuffer.o)
                0x00009fe8                alBufferiv
 .text.alGetBufferf
                0x0000a07a       0x88 D:\oxygine-sound\dependencies\openalext\lib\android\libopenal.a(alBuffer.o)
                0x0000a07a                alGetBufferf
 .text.alGetBuffer3f
                0x0000a102       0x62 D:\oxygine-sound\dependencies\openalext\lib\android\libopenal.a(alBuffer.o)
                0x0000a102                alGetBuffer3f
 .text.alGetBufferfv
                0x0000a164       0x54 D:\oxygine-sound\dependencies\openalext\lib\android\libopenal.a(alBuffer.o)
                0x0000a164                alGetBufferfv
 .text.alGetBuffer3i
                0x0000a1b8       0x62 D:\oxygine-sound\dependencies\openalext\lib\android\libopenal.a(alBuffer.o)
                0x0000a1b8                alGetBuffer3i
 *fill*         0x0000a21a        0x2 00000000
 .text.BytesFromUserFmt
                0x0000a21c       0x1c D:\oxygine-sound\dependencies\openalext\lib\android\libopenal.a(alBuffer.o)
                0x0000a21c                BytesFromUserFmt
 .text.ChannelsFromUserFmt
                0x0000a238       0x1c D:\oxygine-sound\dependencies\openalext\lib\android\libopenal.a(alBuffer.o)
                0x0000a238                ChannelsFromUserFmt
 .text.BytesFromFmt
                0x0000a254       0x1c D:\oxygine-sound\dependencies\openalext\lib\android\libopenal.a(alBuffer.o)
                0x0000a254                BytesFromFmt
 .text.ChannelsFromFmt
                0x0000a270       0x1c D:\oxygine-sound\dependencies\openalext\lib\android\libopenal.a(alBuffer.o)
                0x0000a270                ChannelsFromFmt
 .text.alGetBufferi
                0x0000a28c       0xbc D:\oxygine-sound\dependencies\openalext\lib\android\libopenal.a(alBuffer.o)
                0x0000a28c                alGetBufferi
 .text.alGetBufferiv
                0x0000a348       0x8e D:\oxygine-sound\dependencies\openalext\lib\android\libopenal.a(alBuffer.o)
                0x0000a348                alGetBufferiv
 .text.alGetBufferSamplesSOFT
                0x0000a3d6       0xf6 D:\oxygine-sound\dependencies\openalext\lib\android\libopenal.a(alBuffer.o)
                0x0000a3d6                alGetBufferSamplesSOFT
 .text.alBufferSubSamplesSOFT
                0x0000a4cc      0x106 D:\oxygine-sound\dependencies\openalext\lib\android\libopenal.a(alBuffer.o)
                0x0000a4cc                alBufferSubSamplesSOFT
 *fill*         0x0000a5d2        0x2 00000000
 .text.LoadData
                0x0000a5d4      0x160 D:\oxygine-sound\dependencies\openalext\lib\android\libopenal.a(alBuffer.o)
 .text.alBufferSamplesSOFT
                0x0000a734       0xa0 D:\oxygine-sound\dependencies\openalext\lib\android\libopenal.a(alBuffer.o)
                0x0000a734                alBufferSamplesSOFT
 .text.alBufferData
                0x0000a7d4      0x1c8 D:\oxygine-sound\dependencies\openalext\lib\android\libopenal.a(alBuffer.o)
                0x0000a7d4                alBufferData
 .text.alBufferSubDataSOFT
                0x0000a99c      0x190 D:\oxygine-sound\dependencies\openalext\lib\android\libopenal.a(alBuffer.o)
                0x0000a99c                alBufferSubDataSOFT
 .text.ReleaseALBuffers
                0x0000ab2c       0x3a D:\oxygine-sound\dependencies\openalext\lib\android\libopenal.a(alBuffer.o)
                0x0000ab2c                ReleaseALBuffers
 .text.alGetError
                0x0000ab66       0x2c D:\oxygine-sound\dependencies\openalext\lib\android\libopenal.a(alError.o)
                0x0000ab66                alGetError
 *fill*         0x0000ab92        0x2 00000000
 .text.alSetError
                0x0000ab94       0x3c D:\oxygine-sound\dependencies\openalext\lib\android\libopenal.a(alError.o)
                0x0000ab94                alSetError
 .text.LockContext
                0x0000abd0        0xa D:\oxygine-sound\dependencies\openalext\lib\android\libopenal.a(alSource.o)
 .text.UnlockContext
                0x0000abda        0xa D:\oxygine-sound\dependencies\openalext\lib\android\libopenal.a(alSource.o)
 *fill*         0x0000abe4        0x4 00000000
 .text.GetSourceOffset
                0x0000abe8      0x1d0 D:\oxygine-sound\dependencies\openalext\lib\android\libopenal.a(alSource.o)
 .text.alDeleteSources
                0x0000adb8      0x138 D:\oxygine-sound\dependencies\openalext\lib\android\libopenal.a(alSource.o)
                0x0000adb8                alDeleteSources
 .text.alGenSources
                0x0000aef0      0x184 D:\oxygine-sound\dependencies\openalext\lib\android\libopenal.a(alSource.o)
                0x0000aef0                alGenSources
 .text.alIsSource
                0x0000b074       0x2a D:\oxygine-sound\dependencies\openalext\lib\android\libopenal.a(alSource.o)
                0x0000b074                alIsSource
 .text.alSource3f
                0x0000b09e       0xfa D:\oxygine-sound\dependencies\openalext\lib\android\libopenal.a(alSource.o)
                0x0000b09e                alSource3f
 .text.alSource3i
                0x0000b198      0x164 D:\oxygine-sound\dependencies\openalext\lib\android\libopenal.a(alSource.o)
                0x0000b198                alSource3i
 .text.alGetSourcef
                0x0000b2fc      0x158 D:\oxygine-sound\dependencies\openalext\lib\android\libopenal.a(alSource.o)
                0x0000b2fc                alGetSourcef
 .text.alGetSource3f
                0x0000b454       0xc8 D:\oxygine-sound\dependencies\openalext\lib\android\libopenal.a(alSource.o)
                0x0000b454                alGetSource3f
 .text.alGetSourcefv
                0x0000b51c      0x100 D:\oxygine-sound\dependencies\openalext\lib\android\libopenal.a(alSource.o)
                0x0000b51c                alGetSourcefv
 .text.alGetSourcei
                0x0000b61c      0x20c D:\oxygine-sound\dependencies\openalext\lib\android\libopenal.a(alSource.o)
                0x0000b61c                alGetSourcei
 .text.alGetSource3i
                0x0000b828       0xfc D:\oxygine-sound\dependencies\openalext\lib\android\libopenal.a(alSource.o)
                0x0000b828                alGetSource3i
 .text.alGetSourceiv
                0x0000b924      0x144 D:\oxygine-sound\dependencies\openalext\lib\android\libopenal.a(alSource.o)
                0x0000b924                alGetSourceiv
 .text.alSourceQueueBuffers
                0x0000ba68      0x230 D:\oxygine-sound\dependencies\openalext\lib\android\libopenal.a(alSource.o)
                0x0000ba68                alSourceQueueBuffers
 .text.alSourceUnqueueBuffers
                0x0000bc98       0xd6 D:\oxygine-sound\dependencies\openalext\lib\android\libopenal.a(alSource.o)
                0x0000bc98                alSourceUnqueueBuffers
 *fill*         0x0000bd6e        0x2 00000000
 .text.ApplyOffset
                0x0000bd70       0xf0 D:\oxygine-sound\dependencies\openalext\lib\android\libopenal.a(alSource.o)
                0x0000bd70                ApplyOffset
 .text.SetSourceState
                0x0000be60      0x144 D:\oxygine-sound\dependencies\openalext\lib\android\libopenal.a(alSource.o)
                0x0000be60                SetSourceState
 .text.alSourceRewindv
                0x0000bfa4       0x9a D:\oxygine-sound\dependencies\openalext\lib\android\libopenal.a(alSource.o)
                0x0000bfa4                alSourceRewindv
 .text.alSourceRewind
                0x0000c03e       0x10 D:\oxygine-sound\dependencies\openalext\lib\android\libopenal.a(alSource.o)
                0x0000c03e                alSourceRewind
 .text.alSourceStopv
                0x0000c04e       0x9a D:\oxygine-sound\dependencies\openalext\lib\android\libopenal.a(alSource.o)
                0x0000c04e                alSourceStopv
 .text.alSourceStop
                0x0000c0e8       0x10 D:\oxygine-sound\dependencies\openalext\lib\android\libopenal.a(alSource.o)
                0x0000c0e8                alSourceStop
 .text.alSourcePausev
                0x0000c0f8       0xa4 D:\oxygine-sound\dependencies\openalext\lib\android\libopenal.a(alSource.o)
                0x0000c0f8                alSourcePausev
 .text.alSourcePause
                0x0000c19c       0x10 D:\oxygine-sound\dependencies\openalext\lib\android\libopenal.a(alSource.o)
                0x0000c19c                alSourcePause
 .text.alSourcePlayv
                0x0000c1ac       0xdc D:\oxygine-sound\dependencies\openalext\lib\android\libopenal.a(alSource.o)
                0x0000c1ac                alSourcePlayv
 .text.alSourcePlay
                0x0000c288       0x10 D:\oxygine-sound\dependencies\openalext\lib\android\libopenal.a(alSource.o)
                0x0000c288                alSourcePlay
 .text.alSourcef
                0x0000c298      0x2f4 D:\oxygine-sound\dependencies\openalext\lib\android\libopenal.a(alSource.o)
                0x0000c298                alSourcef
 .text.alSourcefv
                0x0000c58c       0xaa D:\oxygine-sound\dependencies\openalext\lib\android\libopenal.a(alSource.o)
                0x0000c58c                alSourcefv
 *fill*         0x0000c636        0x2 00000000
 .text.alSourcei
                0x0000c638      0x378 D:\oxygine-sound\dependencies\openalext\lib\android\libopenal.a(alSource.o)
                0x0000c638                alSourcei
 .text.alSourceiv
                0x0000c9b0       0xe4 D:\oxygine-sound\dependencies\openalext\lib\android\libopenal.a(alSource.o)
                0x0000c9b0                alSourceiv
 .text.ReleaseALSources
                0x0000ca94       0xaa D:\oxygine-sound\dependencies\openalext\lib\android\libopenal.a(alSource.o)
                0x0000ca94                ReleaseALSources
 *fill*         0x0000cb3e        0x2 00000000
 .text.ThunkInit
                0x0000cb40       0x20 D:\oxygine-sound\dependencies\openalext\lib\android\libopenal.a(alThunk.o)
                0x0000cb40                ThunkInit
 .text.ThunkExit
                0x0000cb60       0x18 D:\oxygine-sound\dependencies\openalext\lib\android\libopenal.a(alThunk.o)
                0x0000cb60                ThunkExit
 .text.NewThunkEntry
                0x0000cb78       0xcc D:\oxygine-sound\dependencies\openalext\lib\android\libopenal.a(alThunk.o)
                0x0000cb78                NewThunkEntry
 .text.FreeThunkEntry
                0x0000cc44       0x48 D:\oxygine-sound\dependencies\openalext\lib\android\libopenal.a(alThunk.o)
                0x0000cc44                FreeThunkEntry
 .text.alcSuspendContext
                0x0000cc8c        0x2 D:\oxygine-sound\dependencies\openalext\lib\android\libopenal.a(ALc.o)
                0x0000cc8c                alcSuspendContext
 .text.alcProcessContext
                0x0000cc8e        0x2 D:\oxygine-sound\dependencies\openalext\lib\android\libopenal.a(ALc.o)
                0x0000cc8e                alcProcessContext
 .text.LockLists
                0x0000cc90        0xc D:\oxygine-sound\dependencies\openalext\lib\android\libopenal.a(ALc.o)
 .text.UnlockLists
                0x0000cc9c        0xc D:\oxygine-sound\dependencies\openalext\lib\android\libopenal.a(ALc.o)
 .text.alcSetError
                0x0000cca8       0x2c D:\oxygine-sound\dependencies\openalext\lib\android\libopenal.a(ALc.o)
 .text.alcLoopbackOpenDeviceSOFT
                0x0000ccd4      0x1a4 D:\oxygine-sound\dependencies\openalext\lib\android\libopenal.a(ALc.o)
                0x0000ccd4                alcLoopbackOpenDeviceSOFT
 .text.alc_initconfig
                0x0000ce78      0x5e4 D:\oxygine-sound\dependencies\openalext\lib\android\libopenal.a(ALc.o)
 .text.alcGetThreadContext
                0x0000d45c       0x10 D:\oxygine-sound\dependencies\openalext\lib\android\libopenal.a(ALc.o)
                0x0000d45c                alcGetThreadContext
 .text.alcGetCurrentContext
                0x0000d46c       0x1c D:\oxygine-sound\dependencies\openalext\lib\android\libopenal.a(ALc.o)
                0x0000d46c                alcGetCurrentContext
 .text.ProbeList
                0x0000d488       0x4c D:\oxygine-sound\dependencies\openalext\lib\android\libopenal.a(ALc.o)
 .text.alcCaptureOpenDevice
                0x0000d4d4      0x1cc D:\oxygine-sound\dependencies\openalext\lib\android\libopenal.a(ALc.o)
                0x0000d4d4                alcCaptureOpenDevice
 .text.alcOpenDevice
                0x0000d6a0      0x50c D:\oxygine-sound\dependencies\openalext\lib\android\libopenal.a(ALc.o)
                0x0000d6a0                alcOpenDevice
 .text.exit.ReleaseALC
                0x0000dbac       0xb0 D:\oxygine-sound\dependencies\openalext\lib\android\libopenal.a(ALc.o)
 .text.AppendList
                0x0000dc5c       0x6c D:\oxygine-sound\dependencies\openalext\lib\android\libopenal.a(ALc.o)
 .text.startup.alc_init
                0x0000dcc8      0x168 D:\oxygine-sound\dependencies\openalext\lib\android\libopenal.a(ALc.o)
 .text.exit.alc_deinit
                0x0000de30       0x98 D:\oxygine-sound\dependencies\openalext\lib\android\libopenal.a(ALc.o)
 .text.AppendAllDeviceList
                0x0000dec8       0x14 D:\oxygine-sound\dependencies\openalext\lib\android\libopenal.a(ALc.o)
                0x0000dec8                AppendAllDeviceList
 .text.AppendCaptureDeviceList
                0x0000dedc       0x14 D:\oxygine-sound\dependencies\openalext\lib\android\libopenal.a(ALc.o)
                0x0000dedc                AppendCaptureDeviceList
 .text.SetDefaultWFXChannelOrder
                0x0000def0      0x128 D:\oxygine-sound\dependencies\openalext\lib\android\libopenal.a(ALc.o)
                0x0000def0                SetDefaultWFXChannelOrder
 .text.SetDefaultChannelOrder
                0x0000e018       0x76 D:\oxygine-sound\dependencies\openalext\lib\android\libopenal.a(ALc.o)
                0x0000e018                SetDefaultChannelOrder
 *fill*         0x0000e08e        0x2 00000000
 .text.DevFmtTypeString
                0x0000e090       0x64 D:\oxygine-sound\dependencies\openalext\lib\android\libopenal.a(ALc.o)
                0x0000e090                DevFmtTypeString
 .text.DevFmtChannelsString
                0x0000e0f4       0x84 D:\oxygine-sound\dependencies\openalext\lib\android\libopenal.a(ALc.o)
                0x0000e0f4                DevFmtChannelsString
 .text.BytesFromDevFmt
                0x0000e178       0x1c D:\oxygine-sound\dependencies\openalext\lib\android\libopenal.a(ALc.o)
                0x0000e178                BytesFromDevFmt
 .text.ChannelsFromDevFmt
                0x0000e194       0x4e D:\oxygine-sound\dependencies\openalext\lib\android\libopenal.a(ALc.o)
                0x0000e194                ChannelsFromDevFmt
 *fill*         0x0000e1e2        0x2 00000000
 .text.ALCdevice_IncRef
                0x0000e1e4       0x48 D:\oxygine-sound\dependencies\openalext\lib\android\libopenal.a(ALc.o)
                0x0000e1e4                ALCdevice_IncRef
 .text.VerifyDevice
                0x0000e22c       0x44 D:\oxygine-sound\dependencies\openalext\lib\android\libopenal.a(ALc.o)
 .text.ALCdevice_DecRef
                0x0000e270      0x160 D:\oxygine-sound\dependencies\openalext\lib\android\libopenal.a(ALc.o)
                0x0000e270                ALCdevice_DecRef
 .text.alcRenderSamplesSOFT
                0x0000e3d0       0x52 D:\oxygine-sound\dependencies\openalext\lib\android\libopenal.a(ALc.o)
                0x0000e3d0                alcRenderSamplesSOFT
 .text.alcIsRenderFormatSupportedSOFT
                0x0000e422       0x80 D:\oxygine-sound\dependencies\openalext\lib\android\libopenal.a(ALc.o)
                0x0000e422                alcIsRenderFormatSupportedSOFT
 *fill*         0x0000e4a2        0x2 00000000
 .text.alcCreateContext
                0x0000e4a4      0x960 D:\oxygine-sound\dependencies\openalext\lib\android\libopenal.a(ALc.o)
                0x0000e4a4                alcCreateContext
 .text.alcGetEnumValue
                0x0000ee04       0x50 D:\oxygine-sound\dependencies\openalext\lib\android\libopenal.a(ALc.o)
                0x0000ee04                alcGetEnumValue
 .text.alcGetProcAddress
                0x0000ee54       0x50 D:\oxygine-sound\dependencies\openalext\lib\android\libopenal.a(ALc.o)
                0x0000ee54                alcGetProcAddress
 .text.alcIsExtensionPresent
                0x0000eea4       0xa4 D:\oxygine-sound\dependencies\openalext\lib\android\libopenal.a(ALc.o)
                0x0000eea4                alcIsExtensionPresent
 .text.alcGetIntegerv
                0x0000ef48      0x228 D:\oxygine-sound\dependencies\openalext\lib\android\libopenal.a(ALc.o)
                0x0000ef48                alcGetIntegerv
 .text.alcGetString
                0x0000f170      0x25c D:\oxygine-sound\dependencies\openalext\lib\android\libopenal.a(ALc.o)
                0x0000f170                alcGetString
 .text.alcGetError
                0x0000f3cc       0x4c D:\oxygine-sound\dependencies\openalext\lib\android\libopenal.a(ALc.o)
                0x0000f3cc                alcGetError
 .text.alcCaptureSamples
                0x0000f418       0x68 D:\oxygine-sound\dependencies\openalext\lib\android\libopenal.a(ALc.o)
                0x0000f418                alcCaptureSamples
 .text.alcCaptureStop
                0x0000f480       0x5a D:\oxygine-sound\dependencies\openalext\lib\android\libopenal.a(ALc.o)
                0x0000f480                alcCaptureStop
 .text.alcCaptureStart
                0x0000f4da       0x5e D:\oxygine-sound\dependencies\openalext\lib\android\libopenal.a(ALc.o)
                0x0000f4da                alcCaptureStart
 .text.alcCaptureCloseDevice
                0x0000f538       0x64 D:\oxygine-sound\dependencies\openalext\lib\android\libopenal.a(ALc.o)
                0x0000f538                alcCaptureCloseDevice
 .text.ALCcontext_IncRef
                0x0000f59c       0x48 D:\oxygine-sound\dependencies\openalext\lib\android\libopenal.a(ALc.o)
                0x0000f59c                ALCcontext_IncRef
 .text.VerifyContext
                0x0000f5e4       0x4c D:\oxygine-sound\dependencies\openalext\lib\android\libopenal.a(ALc.o)
 .text.ALCcontext_DecRef
                0x0000f630      0x130 D:\oxygine-sound\dependencies\openalext\lib\android\libopenal.a(ALc.o)
                0x0000f630                ALCcontext_DecRef
 .text.ReleaseContext
                0x0000f760       0xe8 D:\oxygine-sound\dependencies\openalext\lib\android\libopenal.a(ALc.o)
 .text.alcCloseDevice
                0x0000f848       0xcc D:\oxygine-sound\dependencies\openalext\lib\android\libopenal.a(ALc.o)
                0x0000f848                alcCloseDevice
 .text.alcGetContextsDevice
                0x0000f914       0x22 D:\oxygine-sound\dependencies\openalext\lib\android\libopenal.a(ALc.o)
                0x0000f914                alcGetContextsDevice
 .text.alcDestroyContext
                0x0000f936       0x42 D:\oxygine-sound\dependencies\openalext\lib\android\libopenal.a(ALc.o)
                0x0000f936                alcDestroyContext
 .text.alcSetThreadContext
                0x0000f978       0x48 D:\oxygine-sound\dependencies\openalext\lib\android\libopenal.a(ALc.o)
                0x0000f978                alcSetThreadContext
 .text.alcMakeContextCurrent
                0x0000f9c0       0x6c D:\oxygine-sound\dependencies\openalext\lib\android\libopenal.a(ALc.o)
                0x0000f9c0                alcMakeContextCurrent
 .text.ReleaseThreadCtx
                0x0000fa2c       0x3c D:\oxygine-sound\dependencies\openalext\lib\android\libopenal.a(ALc.o)
 .text.GetContextRef
                0x0000fa68       0x34 D:\oxygine-sound\dependencies\openalext\lib\android\libopenal.a(ALc.o)
                0x0000fa68                GetContextRef
 .text.LoadConfigFromFile
                0x0000fa9c      0x45c D:\oxygine-sound\dependencies\openalext\lib\android\libopenal.a(alcConfig.o)
 .text.ReadALConfig
                0x0000fef8       0xcc D:\oxygine-sound\dependencies\openalext\lib\android\libopenal.a(alcConfig.o)
                0x0000fef8                ReadALConfig
 .text.FreeALConfig
                0x0000ffc4       0x74 D:\oxygine-sound\dependencies\openalext\lib\android\libopenal.a(alcConfig.o)
                0x0000ffc4                FreeALConfig
 .text.GetConfigValue
                0x00010038       0xf8 D:\oxygine-sound\dependencies\openalext\lib\android\libopenal.a(alcConfig.o)
                0x00010038                GetConfigValue
 .text.ConfigValueExists
                0x00010130       0x18 D:\oxygine-sound\dependencies\openalext\lib\android\libopenal.a(alcConfig.o)
                0x00010130                ConfigValueExists
 .text.ConfigValueStr
                0x00010148       0x20 D:\oxygine-sound\dependencies\openalext\lib\android\libopenal.a(alcConfig.o)
                0x00010148                ConfigValueStr
 .text.ConfigValueInt
                0x00010168       0x28 D:\oxygine-sound\dependencies\openalext\lib\android\libopenal.a(alcConfig.o)
                0x00010168                ConfigValueInt
 .text.ConfigValueUInt
                0x00010190       0x28 D:\oxygine-sound\dependencies\openalext\lib\android\libopenal.a(alcConfig.o)
                0x00010190                ConfigValueUInt
 .text.ConfigValueFloat
                0x000101b8       0x30 D:\oxygine-sound\dependencies\openalext\lib\android\libopenal.a(alcConfig.o)
                0x000101b8                ConfigValueFloat
 .text.GetConfigValueBool
                0x000101e8       0x60 D:\oxygine-sound\dependencies\openalext\lib\android\libopenal.a(alcConfig.o)
                0x000101e8                GetConfigValueBool
 .text.DelayLineIn
                0x00010248       0x10 D:\oxygine-sound\dependencies\openalext\lib\android\libopenal.a(alcReverb.o)
 .text.EarlyDelayLineOut
                0x00010258       0x2e D:\oxygine-sound\dependencies\openalext\lib\android\libopenal.a(alcReverb.o)
 .text.EarlyReflection
                0x00010286       0xd6 D:\oxygine-sound\dependencies\openalext\lib\android\libopenal.a(alcReverb.o)
 .text.LateAllPassInOut
                0x0001035c       0x56 D:\oxygine-sound\dependencies\openalext\lib\android\libopenal.a(alcReverb.o)
 .text.LateDelayLineOut
                0x000103b2       0x2e D:\oxygine-sound\dependencies\openalext\lib\android\libopenal.a(alcReverb.o)
 .text.LateReverb
                0x000103e0      0x196 D:\oxygine-sound\dependencies\openalext\lib\android\libopenal.a(alcReverb.o)
 .text.VerbProcess
                0x00010576      0x16a D:\oxygine-sound\dependencies\openalext\lib\android\libopenal.a(alcReverb.o)
 .text.CalcLineLength
                0x000106e0       0x30 D:\oxygine-sound\dependencies\openalext\lib\android\libopenal.a(alcReverb.o)
 .text.EAXVerbProcess
                0x00010710      0x2c4 D:\oxygine-sound\dependencies\openalext\lib\android\libopenal.a(alcReverb.o)
 .text.ReverbUpdate
                0x000109d4      0x71c D:\oxygine-sound\dependencies\openalext\lib\android\libopenal.a(alcReverb.o)
 .text.ReverbDeviceUpdate
                0x000110f0      0x26c D:\oxygine-sound\dependencies\openalext\lib\android\libopenal.a(alcReverb.o)
 .text.ReverbDestroy
                0x0001135c       0x1c D:\oxygine-sound\dependencies\openalext\lib\android\libopenal.a(alcReverb.o)
 .text.ReverbCreate
                0x00011378      0x130 D:\oxygine-sound\dependencies\openalext\lib\android\libopenal.a(alcReverb.o)
                0x00011378                ReverbCreate
 .text.aluDotproduct
                0x000114a8       0x26 D:\oxygine-sound\dependencies\openalext\lib\android\libopenal.a(ALu.o)
 .text.aluMatrixVector
                0x000114ce       0x7a D:\oxygine-sound\dependencies\openalext\lib\android\libopenal.a(ALu.o)
 .text.aluNormalize
                0x00011548       0x4e D:\oxygine-sound\dependencies\openalext\lib\android\libopenal.a(ALu.o)
 *fill*         0x00011596        0x2 00000000
 .text.aluF2I   0x00011598       0x50 D:\oxygine-sound\dependencies\openalext\lib\android\libopenal.a(ALu.o)
 .text.CalcNonAttnSourceParams
                0x000115e8      0x544 D:\oxygine-sound\dependencies\openalext\lib\android\libopenal.a(ALu.o)
                0x000115e8                CalcNonAttnSourceParams
 .text.CalcSourceParams
                0x00011b2c      0xbbc D:\oxygine-sound\dependencies\openalext\lib\android\libopenal.a(ALu.o)
                0x00011b2c                CalcSourceParams
 .text.aluMixData
                0x000126e8     0x10a4 D:\oxygine-sound\dependencies\openalext\lib\android\libopenal.a(ALu.o)
                0x000126e8                aluMixData
 .text.aluHandleDisconnect
                0x0001378c       0x72 D:\oxygine-sound\dependencies\openalext\lib\android\libopenal.a(ALu.o)
                0x0001378c                aluHandleDisconnect
 *fill*         0x000137fe        0x2 00000000
 .text.init     0x00013800      0x1c0 D:\oxygine-sound\dependencies\openalext\lib\android\libopenal.a(bs2b.o)
 .text.bs2b_set_level
                0x000139c0        0xe D:\oxygine-sound\dependencies\openalext\lib\android\libopenal.a(bs2b.o)
                0x000139c0                bs2b_set_level
 .text.bs2b_get_level
                0x000139ce        0x4 D:\oxygine-sound\dependencies\openalext\lib\android\libopenal.a(bs2b.o)
                0x000139ce                bs2b_get_level
 .text.bs2b_set_srate
                0x000139d2        0xe D:\oxygine-sound\dependencies\openalext\lib\android\libopenal.a(bs2b.o)
                0x000139d2                bs2b_set_srate
 .text.bs2b_get_srate
                0x000139e0        0x4 D:\oxygine-sound\dependencies\openalext\lib\android\libopenal.a(bs2b.o)
                0x000139e0                bs2b_get_srate
 .text.bs2b_clear
                0x000139e4        0xa D:\oxygine-sound\dependencies\openalext\lib\android\libopenal.a(bs2b.o)
                0x000139e4                bs2b_clear
 .text.bs2b_cross_feed
                0x000139ee       0xd6 D:\oxygine-sound\dependencies\openalext\lib\android\libopenal.a(bs2b.o)
                0x000139ee                bs2b_cross_feed
 .text.Lock     0x00013ac4       0x24 D:\oxygine-sound\dependencies\openalext\lib\android\libopenal.a(helpers.o)
 .text.InitializeCriticalSection
                0x00013ae8       0x22 D:\oxygine-sound\dependencies\openalext\lib\android\libopenal.a(helpers.o)
                0x00013ae8                InitializeCriticalSection
 .text.DeleteCriticalSection
                0x00013b0a        0x4 D:\oxygine-sound\dependencies\openalext\lib\android\libopenal.a(helpers.o)
                0x00013b0a                DeleteCriticalSection
 .text.EnterCriticalSection
                0x00013b0e        0x4 D:\oxygine-sound\dependencies\openalext\lib\android\libopenal.a(helpers.o)
                0x00013b0e                EnterCriticalSection
 .text.LeaveCriticalSection
                0x00013b12        0x4 D:\oxygine-sound\dependencies\openalext\lib\android\libopenal.a(helpers.o)
                0x00013b12                LeaveCriticalSection
 *fill*         0x00013b16        0x2 00000000
 .text.timeGetTime
                0x00013b18       0x48 D:\oxygine-sound\dependencies\openalext\lib\android\libopenal.a(helpers.o)
                0x00013b18                timeGetTime
 .text.Sleep    0x00013b60       0x50 D:\oxygine-sound\dependencies\openalext\lib\android\libopenal.a(helpers.o)
                0x00013b60                Sleep
 .text.LoadLib  0x00013bb0       0x20 D:\oxygine-sound\dependencies\openalext\lib\android\libopenal.a(helpers.o)
                0x00013bb0                LoadLib
 .text.CloseLib
                0x00013bd0        0x4 D:\oxygine-sound\dependencies\openalext\lib\android\libopenal.a(helpers.o)
                0x00013bd0                CloseLib
 .text.al_print
                0x00013bd4       0x78 D:\oxygine-sound\dependencies\openalext\lib\android\libopenal.a(helpers.o)
                0x00013bd4                al_print
 .text.GetSymbol
                0x00013c4c       0x48 D:\oxygine-sound\dependencies\openalext\lib\android\libopenal.a(helpers.o)
                0x00013c4c                GetSymbol
 .text.SetRTPriority
                0x00013c94       0x54 D:\oxygine-sound\dependencies\openalext\lib\android\libopenal.a(helpers.o)
                0x00013c94                SetRTPriority
 .text.RWLockInit
                0x00013ce8        0xe D:\oxygine-sound\dependencies\openalext\lib\android\libopenal.a(helpers.o)
                0x00013ce8                RWLockInit
 .text.ReadLock
                0x00013cf6       0x66 D:\oxygine-sound\dependencies\openalext\lib\android\libopenal.a(helpers.o)
                0x00013cf6                ReadLock
 .text.ReadUnlock
                0x00013d5c       0x34 D:\oxygine-sound\dependencies\openalext\lib\android\libopenal.a(helpers.o)
                0x00013d5c                ReadUnlock
 .text.WriteLock
                0x00013d90       0x38 D:\oxygine-sound\dependencies\openalext\lib\android\libopenal.a(helpers.o)
                0x00013d90                WriteLock
 .text.WriteUnlock
                0x00013dc8       0x50 D:\oxygine-sound\dependencies\openalext\lib\android\libopenal.a(helpers.o)
                0x00013dc8                WriteUnlock
 .text.InitUIntMap
                0x00013e18       0x10 D:\oxygine-sound\dependencies\openalext\lib\android\libopenal.a(helpers.o)
                0x00013e18                InitUIntMap
 .text.ResetUIntMap
                0x00013e28       0x26 D:\oxygine-sound\dependencies\openalext\lib\android\libopenal.a(helpers.o)
                0x00013e28                ResetUIntMap
 .text.InsertUIntMapEntry
                0x00013e4e       0xd0 D:\oxygine-sound\dependencies\openalext\lib\android\libopenal.a(helpers.o)
                0x00013e4e                InsertUIntMapEntry
 .text.RemoveUIntMapKey
                0x00013f1e       0x70 D:\oxygine-sound\dependencies\openalext\lib\android\libopenal.a(helpers.o)
                0x00013f1e                RemoveUIntMapKey
 .text.LookupUIntMapKey
                0x00013f8e       0x56 D:\oxygine-sound\dependencies\openalext\lib\android\libopenal.a(helpers.o)
                0x00013f8e                LookupUIntMapKey
 .text.CalcAzIndices
                0x00013fe4       0x6c D:\oxygine-sound\dependencies\openalext\lib\android\libopenal.a(hrtf.o)
 .text.CalcHrtfDelta
                0x00014050      0x11c D:\oxygine-sound\dependencies\openalext\lib\android\libopenal.a(hrtf.o)
                0x00014050                CalcHrtfDelta
 .text.GetLerpedHrtfCoeffs
                0x0001416c      0x324 D:\oxygine-sound\dependencies\openalext\lib\android\libopenal.a(hrtf.o)
                0x0001416c                GetLerpedHrtfCoeffs
 .text.GetMovingHrtfCoeffs
                0x00014490      0x458 D:\oxygine-sound\dependencies\openalext\lib\android\libopenal.a(hrtf.o)
                0x00014490                GetMovingHrtfCoeffs
 .text.GetHrtf  0x000148e8       0x88 D:\oxygine-sound\dependencies\openalext\lib\android\libopenal.a(hrtf.o)
                0x000148e8                GetHrtf
 .text.InitHrtf
                0x00014970      0x42c D:\oxygine-sound\dependencies\openalext\lib\android\libopenal.a(hrtf.o)
                0x00014970                InitHrtf
 .text.FreeHrtf
                0x00014d9c       0x18 D:\oxygine-sound\dependencies\openalext\lib\android\libopenal.a(hrtf.o)
                0x00014d9c                FreeHrtf
 .text.lpFilter2P
                0x00014db4       0x2c D:\oxygine-sound\dependencies\openalext\lib\android\libopenal.a(mixer.o)
 .text.lpFilter2PC
                0x00014de0       0x24 D:\oxygine-sound\dependencies\openalext\lib\android\libopenal.a(mixer.o)
 .text.lerp32   0x00014e04       0x2c D:\oxygine-sound\dependencies\openalext\lib\android\libopenal.a(mixer.o)
 .text.cubic32  0x00014e30       0x8c D:\oxygine-sound\dependencies\openalext\lib\android\libopenal.a(mixer.o)
 .text.ApplyCoeffs
                0x00014ebc       0x38 D:\oxygine-sound\dependencies\openalext\lib\android\libopenal.a(mixer.o)
 .text.Mix_ALfloat_point32
                0x00014ef4      0x2a2 D:\oxygine-sound\dependencies\openalext\lib\android\libopenal.a(mixer.o)
 .text.Mix_ALfloat_lerp32
                0x00015196      0x312 D:\oxygine-sound\dependencies\openalext\lib\android\libopenal.a(mixer.o)
 .text.Mix_ALfloat_cubic32
                0x000154a8      0x312 D:\oxygine-sound\dependencies\openalext\lib\android\libopenal.a(mixer.o)
 *fill*         0x000157ba        0x2 00000000
 .text.LoadStack
                0x000157bc       0x7c D:\oxygine-sound\dependencies\openalext\lib\android\libopenal.a(mixer.o)
 .text.SilenceStack
                0x00015838       0x12 D:\oxygine-sound\dependencies\openalext\lib\android\libopenal.a(mixer.o)
 .text.Mix_Hrtf_ALfloat_cubic32
                0x0001584a      0x5e0 D:\oxygine-sound\dependencies\openalext\lib\android\libopenal.a(mixer.o)
 .text.Mix_Hrtf_ALfloat_lerp32
                0x00015e2a      0x5e0 D:\oxygine-sound\dependencies\openalext\lib\android\libopenal.a(mixer.o)
 .text.Mix_Hrtf_ALfloat_point32
                0x0001640a      0x5d4 D:\oxygine-sound\dependencies\openalext\lib\android\libopenal.a(mixer.o)
 *fill*         0x000169de        0x2 00000000
 .text.SelectMixer
                0x000169e0       0x30 D:\oxygine-sound\dependencies\openalext\lib\android\libopenal.a(mixer.o)
                0x000169e0                SelectMixer
 .text.SelectHrtfMixer
                0x00016a10       0x30 D:\oxygine-sound\dependencies\openalext\lib\android\libopenal.a(mixer.o)
                0x00016a10                SelectHrtfMixer
 .text.MixSource
                0x00016a40      0x4e0 D:\oxygine-sound\dependencies\openalext\lib\android\libopenal.a(mixer.o)
                0x00016a40                MixSource
 .text.aluCart2LUTpos
                0x00016f20       0x7c D:\oxygine-sound\dependencies\openalext\lib\android\libopenal.a(panning.o)
                0x00016f20                aluCart2LUTpos
 .text.aluInitPanning
                0x00016f9c      0x7c4 D:\oxygine-sound\dependencies\openalext\lib\android\libopenal.a(panning.o)
                0x00016f9c                aluInitPanning
 .text.res_str  0x00017760       0xd0 D:\oxygine-sound\dependencies\openalext\lib\android\libopenal.a(opensl.o)
 .text.opensl_stop_playback
                0x00017830       0x18 D:\oxygine-sound\dependencies\openalext\lib\android\libopenal.a(opensl.o)
 .text.opensl_close_playback
                0x00017848       0x40 D:\oxygine-sound\dependencies\openalext\lib\android\libopenal.a(opensl.o)
 .text.opensl_start_playback
                0x00017888      0x1f0 D:\oxygine-sound\dependencies\openalext\lib\android\libopenal.a(opensl.o)
 .text.opensl_callback
                0x00017a78       0x68 D:\oxygine-sound\dependencies\openalext\lib\android\libopenal.a(opensl.o)
 .text.opensl_reset_playback
                0x00017ae0      0x1a8 D:\oxygine-sound\dependencies\openalext\lib\android\libopenal.a(opensl.o)
 .text.opensl_open_playback
                0x00017c88      0x1cc D:\oxygine-sound\dependencies\openalext\lib\android\libopenal.a(opensl.o)
 .text.alc_opensl_init
                0x00017e54       0x20 D:\oxygine-sound\dependencies\openalext\lib\android\libopenal.a(opensl.o)
                0x00017e54                alc_opensl_init
 .text.alc_opensl_deinit
                0x00017e74        0x2 D:\oxygine-sound\dependencies\openalext\lib\android\libopenal.a(opensl.o)
                0x00017e74                alc_opensl_deinit
 *fill*         0x00017e76        0x2 00000000
 .text.alc_opensl_probe
                0x00017e78       0x14 D:\oxygine-sound\dependencies\openalext\lib\android\libopenal.a(opensl.o)
                0x00017e78                alc_opensl_probe
 .text.null_stop_playback
                0x00017e8c       0x1e D:\oxygine-sound\dependencies\openalext\lib\android\libopenal.a(null.o)
 *fill*         0x00017eaa        0x2 00000000
 .text.null_start_playback
                0x00017eac       0x24 D:\oxygine-sound\dependencies\openalext\lib\android\libopenal.a(null.o)
 .text.NullProc
                0x00017ed0       0xe6 D:\oxygine-sound\dependencies\openalext\lib\android\libopenal.a(null.o)
 .text.null_reset_playback
                0x00017fb6        0xa D:\oxygine-sound\dependencies\openalext\lib\android\libopenal.a(null.o)
 .text.null_close_playback
                0x00017fc0       0x16 D:\oxygine-sound\dependencies\openalext\lib\android\libopenal.a(null.o)
 *fill*         0x00017fd6        0x2 00000000
 .text.null_open_playback
                0x00017fd8       0x48 D:\oxygine-sound\dependencies\openalext\lib\android\libopenal.a(null.o)
 .text.alc_null_init
                0x00018020       0x20 D:\oxygine-sound\dependencies\openalext\lib\android\libopenal.a(null.o)
                0x00018020                alc_null_init
 .text.alc_null_deinit
                0x00018040        0x2 D:\oxygine-sound\dependencies\openalext\lib\android\libopenal.a(null.o)
                0x00018040                alc_null_deinit
 *fill*         0x00018042        0x2 00000000
 .text.alc_null_probe
                0x00018044       0x10 D:\oxygine-sound\dependencies\openalext\lib\android\libopenal.a(null.o)
                0x00018044                alc_null_probe
 .text.loopback_close_playback
                0x00018054        0x2 D:\oxygine-sound\dependencies\openalext\lib\android\libopenal.a(loopback.o)
 .text.loopback_start_playback
                0x00018056        0x4 D:\oxygine-sound\dependencies\openalext\lib\android\libopenal.a(loopback.o)
 .text.loopback_stop_playback
                0x0001805a        0x2 D:\oxygine-sound\dependencies\openalext\lib\android\libopenal.a(loopback.o)
 .text.loopback_reset_playback
                0x0001805c        0xa D:\oxygine-sound\dependencies\openalext\lib\android\libopenal.a(loopback.o)
 .text.loopback_open_playback
                0x00018066       0x10 D:\oxygine-sound\dependencies\openalext\lib\android\libopenal.a(loopback.o)
 *fill*         0x00018076        0x2 00000000
 .text.alc_loopback_init
                0x00018078       0x20 D:\oxygine-sound\dependencies\openalext\lib\android\libopenal.a(loopback.o)
                0x00018078                alc_loopback_init
 .text.alc_loopback_deinit
                0x00018098        0x2 D:\oxygine-sound\dependencies\openalext\lib\android\libopenal.a(loopback.o)
                0x00018098                alc_loopback_deinit
 .text.alc_loopback_probe
                0x0001809a        0x2 D:\oxygine-sound\dependencies\openalext\lib\android\libopenal.a(loopback.o)
                0x0001809a                alc_loopback_probe
 .text.NoneDeviceUpdate
                0x0001809c        0x4 D:\oxygine-sound\dependencies\openalext\lib\android\libopenal.a(alAuxEffectSlot.o)
 .text.NoneUpdate
                0x000180a0        0x2 D:\oxygine-sound\dependencies\openalext\lib\android\libopenal.a(alAuxEffectSlot.o)
 .text.NoneProcess
                0x000180a2        0x2 D:\oxygine-sound\dependencies\openalext\lib\android\libopenal.a(alAuxEffectSlot.o)
 .text.NoneDestroy
                0x000180a4        0x4 D:\oxygine-sound\dependencies\openalext\lib\android\libopenal.a(alAuxEffectSlot.o)
 .text.RemoveEffectSlotArray
                0x000180a8       0x4c D:\oxygine-sound\dependencies\openalext\lib\android\libopenal.a(alAuxEffectSlot.o)
 .text.alDeleteAuxiliaryEffectSlots
                0x000180f4       0xbc D:\oxygine-sound\dependencies\openalext\lib\android\libopenal.a(alAuxEffectSlot.o)
                0x000180f4                alDeleteAuxiliaryEffectSlots
 .text.alIsAuxiliaryEffectSlot
                0x000181b0       0x2a D:\oxygine-sound\dependencies\openalext\lib\android\libopenal.a(alAuxEffectSlot.o)
                0x000181b0                alIsAuxiliaryEffectSlot
 .text.alAuxiliaryEffectSlotf
                0x000181da       0x7a D:\oxygine-sound\dependencies\openalext\lib\android\libopenal.a(alAuxEffectSlot.o)
                0x000181da                alAuxiliaryEffectSlotf
 .text.alAuxiliaryEffectSlotfv
                0x00018254       0x44 D:\oxygine-sound\dependencies\openalext\lib\android\libopenal.a(alAuxEffectSlot.o)
                0x00018254                alAuxiliaryEffectSlotfv
 .text.alGetAuxiliaryEffectSloti
                0x00018298       0x54 D:\oxygine-sound\dependencies\openalext\lib\android\libopenal.a(alAuxEffectSlot.o)
                0x00018298                alGetAuxiliaryEffectSloti
 .text.alGetAuxiliaryEffectSlotiv
                0x000182ec       0x48 D:\oxygine-sound\dependencies\openalext\lib\android\libopenal.a(alAuxEffectSlot.o)
                0x000182ec                alGetAuxiliaryEffectSlotiv
 .text.alGetAuxiliaryEffectSlotf
                0x00018334       0x46 D:\oxygine-sound\dependencies\openalext\lib\android\libopenal.a(alAuxEffectSlot.o)
                0x00018334                alGetAuxiliaryEffectSlotf
 .text.alGetAuxiliaryEffectSlotfv
                0x0001837a       0x42 D:\oxygine-sound\dependencies\openalext\lib\android\libopenal.a(alAuxEffectSlot.o)
                0x0001837a                alGetAuxiliaryEffectSlotfv
 .text.NoneCreate
                0x000183bc       0x38 D:\oxygine-sound\dependencies\openalext\lib\android\libopenal.a(alAuxEffectSlot.o)
                0x000183bc                NoneCreate
 .text.InitializeEffect
                0x000183f4      0x13e D:\oxygine-sound\dependencies\openalext\lib\android\libopenal.a(alAuxEffectSlot.o)
                0x000183f4                InitializeEffect
 .text.alAuxiliaryEffectSloti
                0x00018532       0x8c D:\oxygine-sound\dependencies\openalext\lib\android\libopenal.a(alAuxEffectSlot.o)
                0x00018532                alAuxiliaryEffectSloti
 .text.alAuxiliaryEffectSlotiv
                0x000185be       0x4a D:\oxygine-sound\dependencies\openalext\lib\android\libopenal.a(alAuxEffectSlot.o)
                0x000185be                alAuxiliaryEffectSlotiv
 .text.InitEffectSlot
                0x00018608       0x4e D:\oxygine-sound\dependencies\openalext\lib\android\libopenal.a(alAuxEffectSlot.o)
                0x00018608                InitEffectSlot
 .text.alGenAuxiliaryEffectSlots
                0x00018656      0x17a D:\oxygine-sound\dependencies\openalext\lib\android\libopenal.a(alAuxEffectSlot.o)
                0x00018656                alGenAuxiliaryEffectSlots
 .text.ReleaseALAuxiliaryEffectSlots
                0x000187d0       0x48 D:\oxygine-sound\dependencies\openalext\lib\android\libopenal.a(alAuxEffectSlot.o)
                0x000187d0                ReleaseALAuxiliaryEffectSlots
 .text.InitEffectParams
                0x00018818      0x35c D:\oxygine-sound\dependencies\openalext\lib\android\libopenal.a(alEffect.o)
 .text.null_GetParamfv
                0x00018b74        0xa D:\oxygine-sound\dependencies\openalext\lib\android\libopenal.a(alEffect.o)
 .text.null_GetParamf
                0x00018b7e        0xa D:\oxygine-sound\dependencies\openalext\lib\android\libopenal.a(alEffect.o)
 .text.null_GetParamiv
                0x00018b88        0xa D:\oxygine-sound\dependencies\openalext\lib\android\libopenal.a(alEffect.o)
 .text.null_GetParami
                0x00018b92        0xa D:\oxygine-sound\dependencies\openalext\lib\android\libopenal.a(alEffect.o)
 .text.null_SetParamfv
                0x00018b9c        0xa D:\oxygine-sound\dependencies\openalext\lib\android\libopenal.a(alEffect.o)
 .text.null_SetParamf
                0x00018ba6        0xa D:\oxygine-sound\dependencies\openalext\lib\android\libopenal.a(alEffect.o)
 .text.null_SetParamiv
                0x00018bb0        0xa D:\oxygine-sound\dependencies\openalext\lib\android\libopenal.a(alEffect.o)
 .text.null_SetParami
                0x00018bba        0xa D:\oxygine-sound\dependencies\openalext\lib\android\libopenal.a(alEffect.o)
 .text.ded_GetParamf
                0x00018bc4       0x16 D:\oxygine-sound\dependencies\openalext\lib\android\libopenal.a(alEffect.o)
 .text.ded_GetParamfv
                0x00018bda        0x4 D:\oxygine-sound\dependencies\openalext\lib\android\libopenal.a(alEffect.o)
 .text.ded_GetParami
                0x00018bde        0xa D:\oxygine-sound\dependencies\openalext\lib\android\libopenal.a(alEffect.o)
 .text.ded_GetParamiv
                0x00018be8        0xa D:\oxygine-sound\dependencies\openalext\lib\android\libopenal.a(alEffect.o)
 .text.ded_SetParami
                0x00018bf2        0xa D:\oxygine-sound\dependencies\openalext\lib\android\libopenal.a(alEffect.o)
 .text.ded_SetParamiv
                0x00018bfc        0xa D:\oxygine-sound\dependencies\openalext\lib\android\libopenal.a(alEffect.o)
 .text.mod_GetParamf
                0x00018c06       0x22 D:\oxygine-sound\dependencies\openalext\lib\android\libopenal.a(alEffect.o)
 .text.mod_GetParamfv
                0x00018c28        0x4 D:\oxygine-sound\dependencies\openalext\lib\android\libopenal.a(alEffect.o)
 .text.mod_GetParami
                0x00018c2c       0x34 D:\oxygine-sound\dependencies\openalext\lib\android\libopenal.a(alEffect.o)
 .text.mod_GetParamiv
                0x00018c60        0x4 D:\oxygine-sound\dependencies\openalext\lib\android\libopenal.a(alEffect.o)
 .text.echo_GetParamf
                0x00018c64       0x38 D:\oxygine-sound\dependencies\openalext\lib\android\libopenal.a(alEffect.o)
 .text.echo_GetParamfv
                0x00018c9c        0x4 D:\oxygine-sound\dependencies\openalext\lib\android\libopenal.a(alEffect.o)
 .text.echo_GetParami
                0x00018ca0        0xa D:\oxygine-sound\dependencies\openalext\lib\android\libopenal.a(alEffect.o)
 .text.echo_GetParamiv
                0x00018caa        0xa D:\oxygine-sound\dependencies\openalext\lib\android\libopenal.a(alEffect.o)
 .text.echo_SetParamf
                0x00018cb4       0xd4 D:\oxygine-sound\dependencies\openalext\lib\android\libopenal.a(alEffect.o)
 .text.echo_SetParamfv
                0x00018d88        0x6 D:\oxygine-sound\dependencies\openalext\lib\android\libopenal.a(alEffect.o)
 .text.echo_SetParami
                0x00018d8e        0xa D:\oxygine-sound\dependencies\openalext\lib\android\libopenal.a(alEffect.o)
 .text.echo_SetParamiv
                0x00018d98        0xa D:\oxygine-sound\dependencies\openalext\lib\android\libopenal.a(alEffect.o)
 .text.reverb_GetParamf
                0x00018da2       0x58 D:\oxygine-sound\dependencies\openalext\lib\android\libopenal.a(alEffect.o)
 .text.reverb_GetParamfv
                0x00018dfa        0x4 D:\oxygine-sound\dependencies\openalext\lib\android\libopenal.a(alEffect.o)
 .text.reverb_GetParami
                0x00018dfe       0x16 D:\oxygine-sound\dependencies\openalext\lib\android\libopenal.a(alEffect.o)
 .text.reverb_GetParamiv
                0x00018e14        0x4 D:\oxygine-sound\dependencies\openalext\lib\android\libopenal.a(alEffect.o)
 .text.reverb_SetParamf
                0x00018e18      0x1d4 D:\oxygine-sound\dependencies\openalext\lib\android\libopenal.a(alEffect.o)
 .text.reverb_SetParamfv
                0x00018fec        0x6 D:\oxygine-sound\dependencies\openalext\lib\android\libopenal.a(alEffect.o)
 .text.reverb_SetParami
                0x00018ff2       0x28 D:\oxygine-sound\dependencies\openalext\lib\android\libopenal.a(alEffect.o)
 .text.reverb_SetParamiv
                0x0001901a        0x6 D:\oxygine-sound\dependencies\openalext\lib\android\libopenal.a(alEffect.o)
 .text.eaxreverb_GetParamf
                0x00019020       0x82 D:\oxygine-sound\dependencies\openalext\lib\android\libopenal.a(alEffect.o)
 .text.eaxreverb_GetParami
                0x000190a2       0x16 D:\oxygine-sound\dependencies\openalext\lib\android\libopenal.a(alEffect.o)
 .text.eaxreverb_GetParamiv
                0x000190b8        0x4 D:\oxygine-sound\dependencies\openalext\lib\android\libopenal.a(alEffect.o)
 .text.eaxreverb_SetParamf
                0x000190bc      0x31c D:\oxygine-sound\dependencies\openalext\lib\android\libopenal.a(alEffect.o)
 .text.eaxreverb_SetParami
                0x000193d8       0x28 D:\oxygine-sound\dependencies\openalext\lib\android\libopenal.a(alEffect.o)
 .text.eaxreverb_SetParamiv
                0x00019400        0x6 D:\oxygine-sound\dependencies\openalext\lib\android\libopenal.a(alEffect.o)
 .text.ded_SetParamf
                0x00019406       0x48 D:\oxygine-sound\dependencies\openalext\lib\android\libopenal.a(alEffect.o)
 .text.ded_SetParamfv
                0x0001944e        0x6 D:\oxygine-sound\dependencies\openalext\lib\android\libopenal.a(alEffect.o)
 .text.eaxreverb_SetParamfv
                0x00019454       0x9c D:\oxygine-sound\dependencies\openalext\lib\android\libopenal.a(alEffect.o)
 .text.mod_SetParamf
                0x000194f0       0x6c D:\oxygine-sound\dependencies\openalext\lib\android\libopenal.a(alEffect.o)
 .text.mod_SetParamfv
                0x0001955c        0x6 D:\oxygine-sound\dependencies\openalext\lib\android\libopenal.a(alEffect.o)
 .text.mod_SetParami
                0x00019562       0x3a D:\oxygine-sound\dependencies\openalext\lib\android\libopenal.a(alEffect.o)
 .text.mod_SetParamiv
                0x0001959c        0x6 D:\oxygine-sound\dependencies\openalext\lib\android\libopenal.a(alEffect.o)
 .text.eaxreverb_GetParamfv
                0x000195a2       0x54 D:\oxygine-sound\dependencies\openalext\lib\android\libopenal.a(alEffect.o)
 .text.alDeleteEffects
                0x000195f6       0x94 D:\oxygine-sound\dependencies\openalext\lib\android\libopenal.a(alEffect.o)
                0x000195f6                alDeleteEffects
 .text.alIsEffect
                0x0001968a       0x36 D:\oxygine-sound\dependencies\openalext\lib\android\libopenal.a(alEffect.o)
                0x0001968a                alIsEffect
 .text.alEffecti
                0x000196c0       0x98 D:\oxygine-sound\dependencies\openalext\lib\android\libopenal.a(alEffect.o)
                0x000196c0                alEffecti
 .text.alEffectiv
                0x00019758       0x42 D:\oxygine-sound\dependencies\openalext\lib\android\libopenal.a(alEffect.o)
                0x00019758                alEffectiv
 .text.alEffectf
                0x0001979a       0x42 D:\oxygine-sound\dependencies\openalext\lib\android\libopenal.a(alEffect.o)
                0x0001979a                alEffectf
 .text.alEffectfv
                0x000197dc       0x42 D:\oxygine-sound\dependencies\openalext\lib\android\libopenal.a(alEffect.o)
                0x000197dc                alEffectfv
 .text.alGetEffecti
                0x0001981e       0x50 D:\oxygine-sound\dependencies\openalext\lib\android\libopenal.a(alEffect.o)
                0x0001981e                alGetEffecti
 .text.alGetEffectiv
                0x0001986e       0x42 D:\oxygine-sound\dependencies\openalext\lib\android\libopenal.a(alEffect.o)
                0x0001986e                alGetEffectiv
 .text.alGetEffectf
                0x000198b0       0x42 D:\oxygine-sound\dependencies\openalext\lib\android\libopenal.a(alEffect.o)
                0x000198b0                alGetEffectf
 .text.alGetEffectfv
                0x000198f2       0x42 D:\oxygine-sound\dependencies\openalext\lib\android\libopenal.a(alEffect.o)
                0x000198f2                alGetEffectfv
 .text.InitEffect
                0x00019934        0xc D:\oxygine-sound\dependencies\openalext\lib\android\libopenal.a(alEffect.o)
                0x00019934                InitEffect
 .text.alGenEffects
                0x00019940       0xbc D:\oxygine-sound\dependencies\openalext\lib\android\libopenal.a(alEffect.o)
                0x00019940                alGenEffects
 .text.ReleaseALEffects
                0x000199fc       0x36 D:\oxygine-sound\dependencies\openalext\lib\android\libopenal.a(alEffect.o)
                0x000199fc                ReleaseALEffects
 *fill*         0x00019a32        0x2 00000000
 .text.LoadReverbPreset
                0x00019a34      0x150 D:\oxygine-sound\dependencies\openalext\lib\android\libopenal.a(alEffect.o)
                0x00019a34                LoadReverbPreset
 .text.alIsExtensionPresent
                0x00019b84       0x8c D:\oxygine-sound\dependencies\openalext\lib\android\libopenal.a(alExtension.o)
                0x00019b84                alIsExtensionPresent
 .text.alGetProcAddress
                0x00019c10        0xc D:\oxygine-sound\dependencies\openalext\lib\android\libopenal.a(alExtension.o)
                0x00019c10                alGetProcAddress
 .text.alGetEnumValue
                0x00019c1c       0x64 D:\oxygine-sound\dependencies\openalext\lib\android\libopenal.a(alExtension.o)
                0x00019c1c                alGetEnumValue
 .text.null_GetParamfv
                0x00019c80        0xa D:\oxygine-sound\dependencies\openalext\lib\android\libopenal.a(alFilter.o)
 .text.null_GetParamf
                0x00019c8a        0xa D:\oxygine-sound\dependencies\openalext\lib\android\libopenal.a(alFilter.o)
 .text.null_GetParamiv
                0x00019c94        0xa D:\oxygine-sound\dependencies\openalext\lib\android\libopenal.a(alFilter.o)
 .text.null_GetParami
                0x00019c9e        0xa D:\oxygine-sound\dependencies\openalext\lib\android\libopenal.a(alFilter.o)
 .text.null_SetParamfv
                0x00019ca8        0xa D:\oxygine-sound\dependencies\openalext\lib\android\libopenal.a(alFilter.o)
 .text.null_SetParamf
                0x00019cb2        0xa D:\oxygine-sound\dependencies\openalext\lib\android\libopenal.a(alFilter.o)
 .text.null_SetParamiv
                0x00019cbc        0xa D:\oxygine-sound\dependencies\openalext\lib\android\libopenal.a(alFilter.o)
 .text.null_SetParami
                0x00019cc6        0xa D:\oxygine-sound\dependencies\openalext\lib\android\libopenal.a(alFilter.o)
 .text.lp_GetParamf
                0x00019cd0       0x1e D:\oxygine-sound\dependencies\openalext\lib\android\libopenal.a(alFilter.o)
 .text.lp_GetParamfv
                0x00019cee        0x4 D:\oxygine-sound\dependencies\openalext\lib\android\libopenal.a(alFilter.o)
 .text.lp_GetParamiv
                0x00019cf2        0xa D:\oxygine-sound\dependencies\openalext\lib\android\libopenal.a(alFilter.o)
 .text.lp_GetParami
                0x00019cfc        0xa D:\oxygine-sound\dependencies\openalext\lib\android\libopenal.a(alFilter.o)
 .text.lp_SetParamiv
                0x00019d06        0xa D:\oxygine-sound\dependencies\openalext\lib\android\libopenal.a(alFilter.o)
 .text.lp_SetParami
                0x00019d10        0xa D:\oxygine-sound\dependencies\openalext\lib\android\libopenal.a(alFilter.o)
 .text.lp_SetParamf
                0x00019d1a       0x5e D:\oxygine-sound\dependencies\openalext\lib\android\libopenal.a(alFilter.o)
 .text.lp_SetParamfv
                0x00019d78        0x6 D:\oxygine-sound\dependencies\openalext\lib\android\libopenal.a(alFilter.o)
 .text.alDeleteFilters
                0x00019d7e       0x92 D:\oxygine-sound\dependencies\openalext\lib\android\libopenal.a(alFilter.o)
                0x00019d7e                alDeleteFilters
 .text.alGenFilters
                0x00019e10      0x114 D:\oxygine-sound\dependencies\openalext\lib\android\libopenal.a(alFilter.o)
                0x00019e10                alGenFilters
 .text.alIsFilter
                0x00019f24       0x36 D:\oxygine-sound\dependencies\openalext\lib\android\libopenal.a(alFilter.o)
                0x00019f24                alIsFilter
 *fill*         0x00019f5a        0x2 00000000
 .text.alFilteri
                0x00019f5c      0x108 D:\oxygine-sound\dependencies\openalext\lib\android\libopenal.a(alFilter.o)
                0x00019f5c                alFilteri
 .text.alFilteriv
                0x0001a064       0x52 D:\oxygine-sound\dependencies\openalext\lib\android\libopenal.a(alFilter.o)
                0x0001a064                alFilteriv
 .text.alFilterf
                0x0001a0b6       0x40 D:\oxygine-sound\dependencies\openalext\lib\android\libopenal.a(alFilter.o)
                0x0001a0b6                alFilterf
 .text.alFilterfv
                0x0001a0f6       0x40 D:\oxygine-sound\dependencies\openalext\lib\android\libopenal.a(alFilter.o)
                0x0001a0f6                alFilterfv
 .text.alGetFilteri
                0x0001a136       0x4e D:\oxygine-sound\dependencies\openalext\lib\android\libopenal.a(alFilter.o)
                0x0001a136                alGetFilteri
 .text.alGetFilteriv
                0x0001a184       0x50 D:\oxygine-sound\dependencies\openalext\lib\android\libopenal.a(alFilter.o)
                0x0001a184                alGetFilteriv
 .text.alGetFilterf
                0x0001a1d4       0x40 D:\oxygine-sound\dependencies\openalext\lib\android\libopenal.a(alFilter.o)
                0x0001a1d4                alGetFilterf
 .text.alGetFilterfv
                0x0001a214       0x40 D:\oxygine-sound\dependencies\openalext\lib\android\libopenal.a(alFilter.o)
                0x0001a214                alGetFilterfv
 .text.lpCoeffCalc
                0x0001a254       0x8c D:\oxygine-sound\dependencies\openalext\lib\android\libopenal.a(alFilter.o)
                0x0001a254                lpCoeffCalc
 .text.ReleaseALFilters
                0x0001a2e0       0x38 D:\oxygine-sound\dependencies\openalext\lib\android\libopenal.a(alFilter.o)
                0x0001a2e0                ReleaseALFilters
 .text.unlikely.aluNormalize
                0x0001a318       0x60 D:\oxygine-sound\dependencies\openalext\lib\android\libopenal.a(alListener.o)
 .text.alListenerf
                0x0001a378       0x8c D:\oxygine-sound\dependencies\openalext\lib\android\libopenal.a(alListener.o)
                0x0001a378                alListenerf
 .text.alListener3f
                0x0001a404       0xae D:\oxygine-sound\dependencies\openalext\lib\android\libopenal.a(alListener.o)
                0x0001a404                alListener3f
 *fill*         0x0001a4b2        0x2 00000000
 .text.alListenerfv
                0x0001a4b4      0x1ac D:\oxygine-sound\dependencies\openalext\lib\android\libopenal.a(alListener.o)
                0x0001a4b4                alListenerfv
 .text.alListeneri
                0x0001a660       0x1e D:\oxygine-sound\dependencies\openalext\lib\android\libopenal.a(alListener.o)
                0x0001a660                alListeneri
 .text.alListener3i
                0x0001a67e       0x58 D:\oxygine-sound\dependencies\openalext\lib\android\libopenal.a(alListener.o)
                0x0001a67e                alListener3i
 .text.alListeneriv
                0x0001a6d6       0xbe D:\oxygine-sound\dependencies\openalext\lib\android\libopenal.a(alListener.o)
                0x0001a6d6                alListeneriv
 .text.alGetListenerf
                0x0001a794       0x4c D:\oxygine-sound\dependencies\openalext\lib\android\libopenal.a(alListener.o)
                0x0001a794                alGetListenerf
 .text.alGetListener3f
                0x0001a7e0       0x98 D:\oxygine-sound\dependencies\openalext\lib\android\libopenal.a(alListener.o)
                0x0001a7e0                alGetListener3f
 .text.alGetListenerfv
                0x0001a878       0xa8 D:\oxygine-sound\dependencies\openalext\lib\android\libopenal.a(alListener.o)
                0x0001a878                alGetListenerfv
 .text.alGetListeneri
                0x0001a920       0x26 D:\oxygine-sound\dependencies\openalext\lib\android\libopenal.a(alListener.o)
                0x0001a920                alGetListeneri
 .text.alGetListener3i
                0x0001a946       0xc2 D:\oxygine-sound\dependencies\openalext\lib\android\libopenal.a(alListener.o)
                0x0001a946                alGetListener3i
 .text.alGetListeneriv
                0x0001aa08       0xb4 D:\oxygine-sound\dependencies\openalext\lib\android\libopenal.a(alListener.o)
                0x0001aa08                alGetListeneriv
 .text.alEnable
                0x0001aabc       0x32 D:\oxygine-sound\dependencies\openalext\lib\android\libopenal.a(alState.o)
                0x0001aabc                alEnable
 .text.alDisable
                0x0001aaee       0x34 D:\oxygine-sound\dependencies\openalext\lib\android\libopenal.a(alState.o)
                0x0001aaee                alDisable
 .text.alIsEnabled
                0x0001ab22       0x30 D:\oxygine-sound\dependencies\openalext\lib\android\libopenal.a(alState.o)
                0x0001ab22                alIsEnabled
 .text.alGetBoolean
                0x0001ab52       0x8a D:\oxygine-sound\dependencies\openalext\lib\android\libopenal.a(alState.o)
                0x0001ab52                alGetBoolean
 *fill*         0x0001abdc        0x4 00000000
 .text.alGetDouble
                0x0001abe0       0x98 D:\oxygine-sound\dependencies\openalext\lib\android\libopenal.a(alState.o)
                0x0001abe0                alGetDouble
 .text.alGetFloat
                0x0001ac78       0x90 D:\oxygine-sound\dependencies\openalext\lib\android\libopenal.a(alState.o)
                0x0001ac78                alGetFloat
 .text.alGetInteger
                0x0001ad08       0x76 D:\oxygine-sound\dependencies\openalext\lib\android\libopenal.a(alState.o)
                0x0001ad08                alGetInteger
 .text.alGetBooleanv
                0x0001ad7e       0x44 D:\oxygine-sound\dependencies\openalext\lib\android\libopenal.a(alState.o)
                0x0001ad7e                alGetBooleanv
 .text.alGetDoublev
                0x0001adc2       0x46 D:\oxygine-sound\dependencies\openalext\lib\android\libopenal.a(alState.o)
                0x0001adc2                alGetDoublev
 .text.alGetFloatv
                0x0001ae08       0x44 D:\oxygine-sound\dependencies\openalext\lib\android\libopenal.a(alState.o)
                0x0001ae08                alGetFloatv
 .text.alGetIntegerv
                0x0001ae4c       0x44 D:\oxygine-sound\dependencies\openalext\lib\android\libopenal.a(alState.o)
                0x0001ae4c                alGetIntegerv
 .text.alGetString
                0x0001ae90       0xf0 D:\oxygine-sound\dependencies\openalext\lib\android\libopenal.a(alState.o)
                0x0001ae90                alGetString
 .text.alDopplerFactor
                0x0001af80       0x50 D:\oxygine-sound\dependencies\openalext\lib\android\libopenal.a(alState.o)
                0x0001af80                alDopplerFactor
 .text.alDopplerVelocity
                0x0001afd0       0x50 D:\oxygine-sound\dependencies\openalext\lib\android\libopenal.a(alState.o)
                0x0001afd0                alDopplerVelocity
 .text.alSpeedOfSound
                0x0001b020       0x50 D:\oxygine-sound\dependencies\openalext\lib\android\libopenal.a(alState.o)
                0x0001b020                alSpeedOfSound
 .text.alDistanceModel
                0x0001b070       0x3e D:\oxygine-sound\dependencies\openalext\lib\android\libopenal.a(alState.o)
                0x0001b070                alDistanceModel
 .text.alDeferUpdatesSOFT
                0x0001b0ae       0xf6 D:\oxygine-sound\dependencies\openalext\lib\android\libopenal.a(alState.o)
                0x0001b0ae                alDeferUpdatesSOFT
 .text.alProcessUpdatesSOFT
                0x0001b1a4       0xba D:\oxygine-sound\dependencies\openalext\lib\android\libopenal.a(alState.o)
                0x0001b1a4                alProcessUpdatesSOFT
 .text.DedicatedDeviceUpdate
                0x0001b25e        0x4 D:\oxygine-sound\dependencies\openalext\lib\android\libopenal.a(alcDedicated.o)
 .text.DedicatedProcess
                0x0001b262       0x2c D:\oxygine-sound\dependencies\openalext\lib\android\libopenal.a(alcDedicated.o)
 .text.DedicatedUpdate
                0x0001b28e       0x6c D:\oxygine-sound\dependencies\openalext\lib\android\libopenal.a(alcDedicated.o)
 .text.DedicatedDestroy
                0x0001b2fa        0x4 D:\oxygine-sound\dependencies\openalext\lib\android\libopenal.a(alcDedicated.o)
 *fill*         0x0001b2fe        0x2 00000000
 .text.DedicatedCreate
                0x0001b300       0x44 D:\oxygine-sound\dependencies\openalext\lib\android\libopenal.a(alcDedicated.o)
                0x0001b300                DedicatedCreate
 .text.EchoProcess
                0x0001b344       0xd0 D:\oxygine-sound\dependencies\openalext\lib\android\libopenal.a(alcEcho.o)
 .text.EchoUpdate
                0x0001b414      0x190 D:\oxygine-sound\dependencies\openalext\lib\android\libopenal.a(alcEcho.o)
 .text.EchoDeviceUpdate
                0x0001b5a4       0x78 D:\oxygine-sound\dependencies\openalext\lib\android\libopenal.a(alcEcho.o)
 .text.EchoDestroy
                0x0001b61c       0x1c D:\oxygine-sound\dependencies\openalext\lib\android\libopenal.a(alcEcho.o)
 .text.EchoCreate
                0x0001b638       0x48 D:\oxygine-sound\dependencies\openalext\lib\android\libopenal.a(alcEcho.o)
                0x0001b638                EchoCreate
 .text.ModulatorDeviceUpdate
                0x0001b680        0x4 D:\oxygine-sound\dependencies\openalext\lib\android\libopenal.a(alcModulator.o)
 .text.ModulatorProcess
                0x0001b684      0x198 D:\oxygine-sound\dependencies\openalext\lib\android\libopenal.a(alcModulator.o)
 .text.ModulatorUpdate
                0x0001b81c      0x104 D:\oxygine-sound\dependencies\openalext\lib\android\libopenal.a(alcModulator.o)
 .text.ModulatorDestroy
                0x0001b920        0x4 D:\oxygine-sound\dependencies\openalext\lib\android\libopenal.a(alcModulator.o)
 .text.ModulatorCreate
                0x0001b924       0x44 D:\oxygine-sound\dependencies\openalext\lib\android\libopenal.a(alcModulator.o)
                0x0001b924                ModulatorCreate
 .text.StarterFunc
                0x0001b968       0x10 D:\oxygine-sound\dependencies\openalext\lib\android\libopenal.a(alcThread.o)
 .text.StartThread
                0x0001b978       0x38 D:\oxygine-sound\dependencies\openalext\lib\android\libopenal.a(alcThread.o)
                0x0001b978                StartThread
 .text.StopThread
                0x0001b9b0       0x18 D:\oxygine-sound\dependencies\openalext\lib\android\libopenal.a(alcThread.o)
                0x0001b9b0                StopThread
 .text          0x0001b9c8       0xc4 d:/android/android-ndk-r8e/toolchains/arm-linux-androideabi-4.4.3/prebuilt/windows/bin/../lib/gcc/arm-linux-androideabi/4.4.3\libgcc.a(_udivsi3.o)
                0x0001b9c8                __udivsi3
                0x0001b9c8                __aeabi_uidiv
                0x0001ba74                __aeabi_uidivmod
 .text          0x0001ba8c       0xf4 d:/android/android-ndk-r8e/toolchains/arm-linux-androideabi-4.4.3/prebuilt/windows/bin/../lib/gcc/arm-linux-androideabi/4.4.3\libgcc.a(_divsi3.o)
                0x0001ba8c                __aeabi_idiv
                0x0001ba8c                __divsi3
                0x0001bb68                __aeabi_idivmod
 .text          0x0001bb80       0x1c d:/android/android-ndk-r8e/toolchains/arm-linux-androideabi-4.4.3/prebuilt/windows/bin/../lib/gcc/arm-linux-androideabi/4.4.3\libgcc.a(_aeabi_ldivmod.o)
                0x0001bb80                __aeabi_ldivmod
 .text          0x0001bb9c       0x1c d:/android/android-ndk-r8e/toolchains/arm-linux-androideabi-4.4.3/prebuilt/windows/bin/../lib/gcc/arm-linux-androideabi/4.4.3\libgcc.a(_aeabi_uldivmod.o)
                0x0001bb9c                __aeabi_uldivmod
 .text          0x0001bbb8       0x10 d:/android/android-ndk-r8e/toolchains/arm-linux-androideabi-4.4.3/prebuilt/windows/bin/../lib/gcc/arm-linux-androideabi/4.4.3\libgcc.a(_dvmd_lnx.o)
                0x0001bbb8                __div0
 .text          0x0001bbc8       0x88 d:/android/android-ndk-r8e/toolchains/arm-linux-androideabi-4.4.3/prebuilt/windows/bin/../lib/gcc/arm-linux-androideabi/4.4.3\libgcc.a(bpabi.o)
                0x0001bbc8                __gnu_uldivmod_helper
                0x0001bc0c                __gnu_ldivmod_helper
 .text          0x0001bc50      0xec4 d:/android/android-ndk-r8e/toolchains/arm-linux-androideabi-4.4.3/prebuilt/windows/bin/../lib/gcc/arm-linux-androideabi/4.4.3\libgcc.a(unwind-arm.o)
                0x0001c678                __gnu_Unwind_RaiseException
                0x0001c1d0                __aeabi_unwind_cpp_pr0
                0x0001bd00                _Unwind_GetCFA
                0x0001bc9c                _Unwind_VRS_Set
                0x0001c414                __gnu_Unwind_Backtrace
                0x0001c7a8                _Unwind_VRS_Pop
                0x0001c1c0                __aeabi_unwind_cpp_pr2
                0x0001bd0c                _Unwind_DeleteException
                0x0001bd08                _Unwind_Complete
                0x0001c73c                __gnu_Unwind_Resume
                0x0001c604                __gnu_Unwind_ForcedUnwind
                0x0001c71c                __gnu_Unwind_Resume_or_Rethrow
                0x0001bc50                _Unwind_VRS_Get
                0x0001c1c8                __aeabi_unwind_cpp_pr1
 .text          0x0001cb14      0x1a8 d:/android/android-ndk-r8e/toolchains/arm-linux-androideabi-4.4.3/prebuilt/windows/bin/../lib/gcc/arm-linux-androideabi/4.4.3\libgcc.a(libunwind.o)
                0x0001cc74                ___Unwind_ForcedUnwind
                0x0001cb30                __gnu_Unwind_Save_VFP
                0x0001cc50                _Unwind_Resume_or_Rethrow
                0x0001cc50                ___Unwind_Resume_or_Rethrow
                0x0001cc98                _Unwind_Backtrace
                0x0001cb14                __restore_core_regs
                0x0001cb50                __gnu_Unwind_Save_VFP_D_16_to_31
                0x0001cb40                __gnu_Unwind_Save_VFP_D
                0x0001cc98                ___Unwind_Backtrace
                0x0001cc08                ___Unwind_RaiseException
                0x0001cc2c                ___Unwind_Resume
                0x0001cb58                __gnu_Unwind_Restore_WMMXD
                0x0001cb28                __gnu_Unwind_Restore_VFP
                0x0001cc2c                _Unwind_Resume
                0x0001cb38                __gnu_Unwind_Restore_VFP_D
                0x0001cb48                __gnu_Unwind_Restore_VFP_D_16_to_31
                0x0001cc08                _Unwind_RaiseException
                0x0001cb14                restore_core_regs
                0x0001cbf4                __gnu_Unwind_Save_WMMXC
                0x0001cbe0                __gnu_Unwind_Restore_WMMXC
                0x0001cc74                _Unwind_ForcedUnwind
                0x0001cb9c                __gnu_Unwind_Save_WMMXD
 .text          0x0001ccbc      0x484 d:/android/android-ndk-r8e/toolchains/arm-linux-androideabi-4.4.3/prebuilt/windows/bin/../lib/gcc/arm-linux-androideabi/4.4.3\libgcc.a(pr-support.o)
                0x0001cd5c                _Unwind_GetRegionStart
                0x0001cd88                __gnu_unwind_execute
                0x0001cd14                _Unwind_GetTextRelBase
                0x0001cd24                _Unwind_GetLanguageSpecificData
                0x0001d100                __gnu_unwind_frame
                0x0001cd1c                _Unwind_GetDataRelBase
 .text          0x0001d140      0x47c d:/android/android-ndk-r8e/toolchains/arm-linux-androideabi-4.4.3/prebuilt/windows/bin/../lib/gcc/arm-linux-androideabi/4.4.3\libgcc.a(_divdi3.o)
                0x0001d140                __divdi3
 .text          0x0001d5bc      0x40c d:/android/android-ndk-r8e/toolchains/arm-linux-androideabi-4.4.3/prebuilt/windows/bin/../lib/gcc/arm-linux-androideabi/4.4.3\libgcc.a(_udivdi3.o)
                0x0001d5bc                __udivdi3
 .text.stub     0x0001d9c8      0x170 linker stubs
 *(.gnu.warning)
 *(.glue_7t)
 .glue_7t       0x00000000        0x0 linker stubs
 *(.glue_7)
 .glue_7        0x00000000        0x0 linker stubs
 *(.vfp11_veneer)
 .vfp11_veneer  0x00000000        0x0 linker stubs
 *(.v4_bx)
 .v4_bx         0x00000000        0x0 linker stubs

.fini
 *(.fini)
                0x0001db38                PROVIDE (__etext, .)
                0x0001db38                PROVIDE (_etext, .)
                0x0001db38                PROVIDE (etext, .)

.rodata         0x0001db38    0x150a7
 *(.rodata .rodata.* .gnu.linkonce.r.*)
 .rodata.str1.4
                0x0001db38        0xc release\openalext_register.os
 .rodata        0x0001db44      0xa80 D:\oxygine-sound\dependencies\openalext\lib\android\libopenal.a(alBuffer.o)
 .rodata        0x0001e5c4       0x18 D:\oxygine-sound\dependencies\openalext\lib\android\libopenal.a(alSource.o)
                0x0001e5d0                ResamplerPadding
                0x0001e5c4                ResamplerPrePadding
 .rodata        0x0001e5dc        0xe D:\oxygine-sound\dependencies\openalext\lib\android\libopenal.a(alThunk.o)
 .rodata.str1.1
                0x0001e5ea       0x2a D:\oxygine-sound\dependencies\openalext\lib\android\libopenal.a(alThunk.o)
 .rodata        0x0001e614      0x87c D:\oxygine-sound\dependencies\openalext\lib\android\libopenal.a(ALc.o)
 .rodata.str1.1
                0x0001ee90     0x12f8 D:\oxygine-sound\dependencies\openalext\lib\android\libopenal.a(ALc.o)
                               0x130c (size before relaxing)
 .rodata        0x00020188       0x22 D:\oxygine-sound\dependencies\openalext\lib\android\libopenal.a(alcConfig.o)
 .rodata.str1.1
                0x000201aa      0x1ca D:\oxygine-sound\dependencies\openalext\lib\android\libopenal.a(alcConfig.o)
                                0x1d2 (size before relaxing)
 .rodata        0x00020374       0x3c D:\oxygine-sound\dependencies\openalext\lib\android\libopenal.a(alcReverb.o)
 .rodata.str1.1
                0x000203b0       0x2f D:\oxygine-sound\dependencies\openalext\lib\android\libopenal.a(alcReverb.o)
 *fill*         0x000203df        0x1 00
 .rodata        0x000203e0       0xf0 D:\oxygine-sound\dependencies\openalext\lib\android\libopenal.a(ALu.o)
 .rodata        0x000204d0       0x18 D:\oxygine-sound\dependencies\openalext\lib\android\libopenal.a(helpers.o)
 .rodata.str1.1
                0x000204e8       0x4d D:\oxygine-sound\dependencies\openalext\lib\android\libopenal.a(helpers.o)
 *fill*         0x00020535        0x3 00
 .rodata        0x00020538     0xd298 D:\oxygine-sound\dependencies\openalext\lib\android\libopenal.a(hrtf.o)
 .rodata.str1.1
                0x0002d7d0      0x163 D:\oxygine-sound\dependencies\openalext\lib\android\libopenal.a(hrtf.o)
                                0x166 (size before relaxing)
 .rodata        0x0002d933       0x16 D:\oxygine-sound\dependencies\openalext\lib\android\libopenal.a(panning.o)
 .rodata.str1.1
                0x0002d949      0x132 D:\oxygine-sound\dependencies\openalext\lib\android\libopenal.a(panning.o)
                                0x135 (size before relaxing)
 .rodata        0x0002da7b       0x58 D:\oxygine-sound\dependencies\openalext\lib\android\libopenal.a(opensl.o)
 .rodata.str1.1
                0x0002dad3      0x22b D:\oxygine-sound\dependencies\openalext\lib\android\libopenal.a(opensl.o)
                                0x233 (size before relaxing)
 .rodata        0x0002dcfe        0xa D:\oxygine-sound\dependencies\openalext\lib\android\libopenal.a(null.o)
 .rodata        0x0002dd08     0x3de0 D:\oxygine-sound\dependencies\openalext\lib\android\libopenal.a(alEffect.o)
 .rodata.str1.1
                0x00031ae8       0x33 D:\oxygine-sound\dependencies\openalext\lib\android\libopenal.a(alEffect.o)
                                 0x38 (size before relaxing)
 .rodata.str1.1
                0x00031b1b     0x1042 D:\oxygine-sound\dependencies\openalext\lib\android\libopenal.a(alExtension.o)
                               0x1049 (size before relaxing)
 .rodata        0x00032b5d       0x82 D:\oxygine-sound\dependencies\openalext\lib\android\libopenal.a(alState.o)

.rodata1
 *(.rodata1)

.ARM.extab      0x00032be0      0x33c
 *(.ARM.extab* .gnu.linkonce.armextab.*)
 .ARM.extab.text.Convert_ALbyte_ALima4
                0x00032be0        0xc D:\oxygine-sound\dependencies\openalext\lib\android\libopenal.a(alBuffer.o)
 .ARM.extab.text.Convert_ALubyte_ALima4
                0x00032bec        0xc D:\oxygine-sound\dependencies\openalext\lib\android\libopenal.a(alBuffer.o)
 .ARM.extab.text.Convert_ALshort_ALima4
                0x00032bf8        0xc D:\oxygine-sound\dependencies\openalext\lib\android\libopenal.a(alBuffer.o)
 .ARM.extab.text.Convert_ALushort_ALima4
                0x00032c04        0xc D:\oxygine-sound\dependencies\openalext\lib\android\libopenal.a(alBuffer.o)
 .ARM.extab.text.Convert_ALint_ALima4
                0x00032c10        0xc D:\oxygine-sound\dependencies\openalext\lib\android\libopenal.a(alBuffer.o)
 .ARM.extab.text.Convert_ALuint_ALima4
                0x00032c1c        0xc D:\oxygine-sound\dependencies\openalext\lib\android\libopenal.a(alBuffer.o)
 .ARM.extab.text.Convert_ALfloat_ALima4
                0x00032c28        0xc D:\oxygine-sound\dependencies\openalext\lib\android\libopenal.a(alBuffer.o)
 .ARM.extab.text.Convert_ALdouble_ALima4
                0x00032c34        0xc D:\oxygine-sound\dependencies\openalext\lib\android\libopenal.a(alBuffer.o)
 .ARM.extab.text.Convert_ALmulaw_ALima4
                0x00032c40        0xc D:\oxygine-sound\dependencies\openalext\lib\android\libopenal.a(alBuffer.o)
 .ARM.extab.text.Convert_ALalaw_ALima4
                0x00032c4c        0xc D:\oxygine-sound\dependencies\openalext\lib\android\libopenal.a(alBuffer.o)
 .ARM.extab.text.Convert_ALima4_ALbyte
                0x00032c58        0xc D:\oxygine-sound\dependencies\openalext\lib\android\libopenal.a(alBuffer.o)
 .ARM.extab.text.Convert_ALima4_ALubyte
                0x00032c64        0xc D:\oxygine-sound\dependencies\openalext\lib\android\libopenal.a(alBuffer.o)
 .ARM.extab.text.Convert_ALima4_ALshort
                0x00032c70        0xc D:\oxygine-sound\dependencies\openalext\lib\android\libopenal.a(alBuffer.o)
 .ARM.extab.text.Convert_ALima4_ALushort
                0x00032c7c        0xc D:\oxygine-sound\dependencies\openalext\lib\android\libopenal.a(alBuffer.o)
 .ARM.extab.text.Convert_ALima4_ALint
                0x00032c88        0xc D:\oxygine-sound\dependencies\openalext\lib\android\libopenal.a(alBuffer.o)
 .ARM.extab.text.Convert_ALima4_ALuint
                0x00032c94        0xc D:\oxygine-sound\dependencies\openalext\lib\android\libopenal.a(alBuffer.o)
 .ARM.extab.text.Convert_ALima4_ALfloat
                0x00032ca0        0xc D:\oxygine-sound\dependencies\openalext\lib\android\libopenal.a(alBuffer.o)
 .ARM.extab.text.Convert_ALima4_ALdouble
                0x00032cac        0xc D:\oxygine-sound\dependencies\openalext\lib\android\libopenal.a(alBuffer.o)
 .ARM.extab.text.Convert_ALima4_ALmulaw
                0x00032cb8        0xc D:\oxygine-sound\dependencies\openalext\lib\android\libopenal.a(alBuffer.o)
 .ARM.extab.text.Convert_ALima4_ALalaw
                0x00032cc4        0xc D:\oxygine-sound\dependencies\openalext\lib\android\libopenal.a(alBuffer.o)
 .ARM.extab.text.Convert_ALima4_ALbyte3
                0x00032cd0        0xc D:\oxygine-sound\dependencies\openalext\lib\android\libopenal.a(alBuffer.o)
 .ARM.extab.text.Convert_ALima4_ALubyte3
                0x00032cdc        0xc D:\oxygine-sound\dependencies\openalext\lib\android\libopenal.a(alBuffer.o)
 .ARM.extab.text.Convert_ALbyte3_ALima4
                0x00032ce8        0xc D:\oxygine-sound\dependencies\openalext\lib\android\libopenal.a(alBuffer.o)
 .ARM.extab.text.Convert_ALubyte3_ALima4
                0x00032cf4        0xc D:\oxygine-sound\dependencies\openalext\lib\android\libopenal.a(alBuffer.o)
 .ARM.extab.text.Convert_ALubyte3
                0x00032d00        0xc D:\oxygine-sound\dependencies\openalext\lib\android\libopenal.a(alBuffer.o)
 .ARM.extab.text.ConvertData
                0x00032d0c        0xc D:\oxygine-sound\dependencies\openalext\lib\android\libopenal.a(alBuffer.o)
 .ARM.extab.text.alSourceRewind
                0x00032d18        0xc D:\oxygine-sound\dependencies\openalext\lib\android\libopenal.a(alSource.o)
 .ARM.extab.text.alSourceStop
                0x00032d24        0xc D:\oxygine-sound\dependencies\openalext\lib\android\libopenal.a(alSource.o)
 .ARM.extab.text.alSourcePause
                0x00032d30        0xc D:\oxygine-sound\dependencies\openalext\lib\android\libopenal.a(alSource.o)
 .ARM.extab.text.alSourcePlay
                0x00032d3c        0xc D:\oxygine-sound\dependencies\openalext\lib\android\libopenal.a(alSource.o)
 .ARM.extab.text.alSourcef
                0x00032d48        0xc D:\oxygine-sound\dependencies\openalext\lib\android\libopenal.a(alSource.o)
 .ARM.extab.text.alc_initconfig
                0x00032d54        0xc D:\oxygine-sound\dependencies\openalext\lib\android\libopenal.a(ALc.o)
 .ARM.extab.text.ConfigValueExists
                0x00032d60        0xc D:\oxygine-sound\dependencies\openalext\lib\android\libopenal.a(alcConfig.o)
 .ARM.extab.text.EarlyReflection
                0x00032d6c        0xc D:\oxygine-sound\dependencies\openalext\lib\android\libopenal.a(alcReverb.o)
 .ARM.extab.text.LateAllPassInOut
                0x00032d78        0xc D:\oxygine-sound\dependencies\openalext\lib\android\libopenal.a(alcReverb.o)
 .ARM.extab.text.VerbProcess
                0x00032d84        0xc D:\oxygine-sound\dependencies\openalext\lib\android\libopenal.a(alcReverb.o)
 .ARM.extab.text.EAXVerbProcess
                0x00032d90        0xc D:\oxygine-sound\dependencies\openalext\lib\android\libopenal.a(alcReverb.o)
 .ARM.extab.text.ReverbUpdate
                0x00032d9c        0xc D:\oxygine-sound\dependencies\openalext\lib\android\libopenal.a(alcReverb.o)
 .ARM.extab.text.ReverbDeviceUpdate
                0x00032da8        0xc D:\oxygine-sound\dependencies\openalext\lib\android\libopenal.a(alcReverb.o)
 .ARM.extab.text.CalcNonAttnSourceParams
                0x00032db4        0xc D:\oxygine-sound\dependencies\openalext\lib\android\libopenal.a(ALu.o)
 .ARM.extab.text.CalcSourceParams
                0x00032dc0        0xc D:\oxygine-sound\dependencies\openalext\lib\android\libopenal.a(ALu.o)
 .ARM.extab.text.aluMixData
                0x00032dcc        0xc D:\oxygine-sound\dependencies\openalext\lib\android\libopenal.a(ALu.o)
 .ARM.extab.text.al_print
                0x00032dd8        0xc D:\oxygine-sound\dependencies\openalext\lib\android\libopenal.a(helpers.o)
 .ARM.extab.text.CalcHrtfDelta
                0x00032de4        0xc D:\oxygine-sound\dependencies\openalext\lib\android\libopenal.a(hrtf.o)
 .ARM.extab.text.GetLerpedHrtfCoeffs
                0x00032df0        0xc D:\oxygine-sound\dependencies\openalext\lib\android\libopenal.a(hrtf.o)
 .ARM.extab.text.GetMovingHrtfCoeffs
                0x00032dfc        0xc D:\oxygine-sound\dependencies\openalext\lib\android\libopenal.a(hrtf.o)
 .ARM.extab.text.InitHrtf
                0x00032e08        0xc D:\oxygine-sound\dependencies\openalext\lib\android\libopenal.a(hrtf.o)
 .ARM.extab.text.Mix_ALfloat_lerp32
                0x00032e14        0xc D:\oxygine-sound\dependencies\openalext\lib\android\libopenal.a(mixer.o)
 .ARM.extab.text.Mix_ALfloat_cubic32
                0x00032e20        0xc D:\oxygine-sound\dependencies\openalext\lib\android\libopenal.a(mixer.o)
 .ARM.extab.text.Mix_Hrtf_ALfloat_cubic32
                0x00032e2c        0xc D:\oxygine-sound\dependencies\openalext\lib\android\libopenal.a(mixer.o)
 .ARM.extab.text.Mix_Hrtf_ALfloat_lerp32
                0x00032e38        0xc D:\oxygine-sound\dependencies\openalext\lib\android\libopenal.a(mixer.o)
 .ARM.extab.text.MixSource
                0x00032e44        0xc D:\oxygine-sound\dependencies\openalext\lib\android\libopenal.a(mixer.o)
 .ARM.extab.text.aluInitPanning
                0x00032e50        0xc D:\oxygine-sound\dependencies\openalext\lib\android\libopenal.a(panning.o)
 .ARM.extab.text.null_reset_playback
                0x00032e5c        0xc D:\oxygine-sound\dependencies\openalext\lib\android\libopenal.a(null.o)
 .ARM.extab.text.loopback_reset_playback
                0x00032e68        0xc D:\oxygine-sound\dependencies\openalext\lib\android\libopenal.a(loopback.o)
 .ARM.extab.text.NoneCreate
                0x00032e74        0xc D:\oxygine-sound\dependencies\openalext\lib\android\libopenal.a(alAuxEffectSlot.o)
 .ARM.extab.text.ded_SetParamf
                0x00032e80        0xc D:\oxygine-sound\dependencies\openalext\lib\android\libopenal.a(alEffect.o)
 .ARM.extab.text.InitEffect
                0x00032e8c        0xc D:\oxygine-sound\dependencies\openalext\lib\android\libopenal.a(alEffect.o)
 .ARM.extab.text.lpCoeffCalc
                0x00032e98        0xc D:\oxygine-sound\dependencies\openalext\lib\android\libopenal.a(alFilter.o)
 .ARM.extab.text.alListenerf
                0x00032ea4        0xc D:\oxygine-sound\dependencies\openalext\lib\android\libopenal.a(alListener.o)
 .ARM.extab.text.alGetDouble
                0x00032eb0        0xc D:\oxygine-sound\dependencies\openalext\lib\android\libopenal.a(alState.o)
 .ARM.extab.text.alGetFloat
                0x00032ebc        0xc D:\oxygine-sound\dependencies\openalext\lib\android\libopenal.a(alState.o)
 .ARM.extab.text.DedicatedCreate
                0x00032ec8        0xc D:\oxygine-sound\dependencies\openalext\lib\android\libopenal.a(alcDedicated.o)
 .ARM.extab.text.EchoUpdate
                0x00032ed4        0xc D:\oxygine-sound\dependencies\openalext\lib\android\libopenal.a(alcEcho.o)
 .ARM.extab.text.EchoCreate
                0x00032ee0        0xc D:\oxygine-sound\dependencies\openalext\lib\android\libopenal.a(alcEcho.o)
 .ARM.extab.text.ModulatorCreate
                0x00032eec        0xc D:\oxygine-sound\dependencies\openalext\lib\android\libopenal.a(alcModulator.o)
 .ARM.extab     0x00032ef8       0x24 d:/android/android-ndk-r8e/toolchains/arm-linux-androideabi-4.4.3/prebuilt/windows/bin/../lib/gcc/arm-linux-androideabi/4.4.3\libgcc.a(unwind-arm.o)
                0x00032f1c                __exidx_start = .

.ARM.exidx      0x00032f1c      0xe40
 *(.ARM.exidx* .gnu.linkonce.armexidx.*)
 .ARM.exidx.text.EncodeMuLaw
                0x00032f1c        0x8 D:\oxygine-sound\dependencies\openalext\lib\android\libopenal.a(alBuffer.o)
 .ARM.exidx.text.EncodeALaw
                0x00032f24        0x8 D:\oxygine-sound\dependencies\openalext\lib\android\libopenal.a(alBuffer.o)
 .ARM.exidx.text.DecodeIMA4Block
                0x00032f2c        0x8 D:\oxygine-sound\dependencies\openalext\lib\android\libopenal.a(alBuffer.o)
 .ARM.exidx.text.EncodeIMA4Block
                0x00032f34        0x8 D:\oxygine-sound\dependencies\openalext\lib\android\libopenal.a(alBuffer.o)
 .ARM.exidx.text.DecodeByte3
                0x00032f3c        0x8 D:\oxygine-sound\dependencies\openalext\lib\android\libopenal.a(alBuffer.o)
 .ARM.exidx.text.DecodeUByte3
                0x00032f44        0x8 D:\oxygine-sound\dependencies\openalext\lib\android\libopenal.a(alBuffer.o)
 .ARM.exidx.text.Convert_ALbyte_ALima4
                0x00032f4c        0x8 D:\oxygine-sound\dependencies\openalext\lib\android\libopenal.a(alBuffer.o)
 .ARM.exidx.text.Convert_ALubyte_ALima4
                0x00032f54        0x8 D:\oxygine-sound\dependencies\openalext\lib\android\libopenal.a(alBuffer.o)
 .ARM.exidx.text.Convert_ALshort_ALima4
                0x00032f5c        0x8 D:\oxygine-sound\dependencies\openalext\lib\android\libopenal.a(alBuffer.o)
 .ARM.exidx.text.Convert_ALushort_ALima4
                0x00032f64        0x8 D:\oxygine-sound\dependencies\openalext\lib\android\libopenal.a(alBuffer.o)
 .ARM.exidx.text.Convert_ALint_ALima4
                0x00032f6c        0x8 D:\oxygine-sound\dependencies\openalext\lib\android\libopenal.a(alBuffer.o)
 .ARM.exidx.text.Convert_ALuint_ALima4
                0x00032f74        0x8 D:\oxygine-sound\dependencies\openalext\lib\android\libopenal.a(alBuffer.o)
 .ARM.exidx.text.Convert_ALfloat_ALima4
                0x00032f7c        0x8 D:\oxygine-sound\dependencies\openalext\lib\android\libopenal.a(alBuffer.o)
 .ARM.exidx.text.Convert_ALdouble_ALima4
                0x00032f84        0x8 D:\oxygine-sound\dependencies\openalext\lib\android\libopenal.a(alBuffer.o)
 .ARM.exidx.text.Convert_ALmulaw_ALima4
                0x00032f8c        0x8 D:\oxygine-sound\dependencies\openalext\lib\android\libopenal.a(alBuffer.o)
 .ARM.exidx.text.Convert_ALalaw_ALima4
                0x00032f94        0x8 D:\oxygine-sound\dependencies\openalext\lib\android\libopenal.a(alBuffer.o)
 .ARM.exidx.text.Convert_ALima4_ALbyte
                0x00032f9c        0x8 D:\oxygine-sound\dependencies\openalext\lib\android\libopenal.a(alBuffer.o)
 .ARM.exidx.text.Convert_ALima4_ALubyte
                0x00032fa4        0x8 D:\oxygine-sound\dependencies\openalext\lib\android\libopenal.a(alBuffer.o)
 .ARM.exidx.text.Convert_ALima4_ALshort
                0x00032fac        0x8 D:\oxygine-sound\dependencies\openalext\lib\android\libopenal.a(alBuffer.o)
 .ARM.exidx.text.Convert_ALima4_ALushort
                0x00032fb4        0x8 D:\oxygine-sound\dependencies\openalext\lib\android\libopenal.a(alBuffer.o)
 .ARM.exidx.text.Convert_ALima4_ALint
                0x00032fbc        0x8 D:\oxygine-sound\dependencies\openalext\lib\android\libopenal.a(alBuffer.o)
 .ARM.exidx.text.Convert_ALima4_ALuint
                0x00032fc4        0x8 D:\oxygine-sound\dependencies\openalext\lib\android\libopenal.a(alBuffer.o)
 .ARM.exidx.text.Convert_ALima4_ALfloat
                0x00032fcc        0x8 D:\oxygine-sound\dependencies\openalext\lib\android\libopenal.a(alBuffer.o)
 .ARM.exidx.text.Convert_ALima4_ALdouble
                0x00032fd4        0x8 D:\oxygine-sound\dependencies\openalext\lib\android\libopenal.a(alBuffer.o)
 .ARM.exidx.text.Convert_ALima4_ALmulaw
                0x00032fdc        0x8 D:\oxygine-sound\dependencies\openalext\lib\android\libopenal.a(alBuffer.o)
 .ARM.exidx.text.Convert_ALima4_ALalaw
                0x00032fe4        0x8 D:\oxygine-sound\dependencies\openalext\lib\android\libopenal.a(alBuffer.o)
 .ARM.exidx.text.Convert_ALima4_ALbyte3
                0x00032fec        0x8 D:\oxygine-sound\dependencies\openalext\lib\android\libopenal.a(alBuffer.o)
 .ARM.exidx.text.Convert_ALima4_ALubyte3
                0x00032ff4        0x8 D:\oxygine-sound\dependencies\openalext\lib\android\libopenal.a(alBuffer.o)
 .ARM.exidx.text.EncodeByte3
                0x00032ffc        0x8 D:\oxygine-sound\dependencies\openalext\lib\android\libopenal.a(alBuffer.o)
 .ARM.exidx.text.Convert_ALbyte3_ALima4
                0x00033004        0x8 D:\oxygine-sound\dependencies\openalext\lib\android\libopenal.a(alBuffer.o)
 .ARM.exidx.text.EncodeUByte3
                0x0003300c        0x8 D:\oxygine-sound\dependencies\openalext\lib\android\libopenal.a(alBuffer.o)
 .ARM.exidx.text.Convert_ALubyte3_ALima4
                0x00033014        0x8 D:\oxygine-sound\dependencies\openalext\lib\android\libopenal.a(alBuffer.o)
 .ARM.exidx.text.Convert_ALubyte3
                0x0003301c        0x8 D:\oxygine-sound\dependencies\openalext\lib\android\libopenal.a(alBuffer.o)
 .ARM.exidx.text.ConvertData
                0x00033024        0x8 D:\oxygine-sound\dependencies\openalext\lib\android\libopenal.a(alBuffer.o)
 .ARM.exidx.text.alDeleteBuffers
                0x0003302c        0x8 D:\oxygine-sound\dependencies\openalext\lib\android\libopenal.a(alBuffer.o)
 .ARM.exidx.text.alGenBuffers
                0x00033034        0x8 D:\oxygine-sound\dependencies\openalext\lib\android\libopenal.a(alBuffer.o)
 .ARM.exidx.text.alIsBuffer
                0x0003303c        0x8 D:\oxygine-sound\dependencies\openalext\lib\android\libopenal.a(alBuffer.o)
 .ARM.exidx.text.alIsBufferFormatSupportedSOFT
                0x00033044        0x8 D:\oxygine-sound\dependencies\openalext\lib\android\libopenal.a(alBuffer.o)
 .ARM.exidx.text.alBufferf
                0x0003304c        0x8 D:\oxygine-sound\dependencies\openalext\lib\android\libopenal.a(alBuffer.o)
 .ARM.exidx.text.alBuffer3f
                0x00033054        0x8 D:\oxygine-sound\dependencies\openalext\lib\android\libopenal.a(alBuffer.o)
 .ARM.exidx.text.alBufferfv
                0x0003305c        0x8 D:\oxygine-sound\dependencies\openalext\lib\android\libopenal.a(alBuffer.o)
 .ARM.exidx.text.alBufferi
                0x00033064        0x8 D:\oxygine-sound\dependencies\openalext\lib\android\libopenal.a(alBuffer.o)
 .ARM.exidx.text.alBuffer3i
                0x0003306c        0x8 D:\oxygine-sound\dependencies\openalext\lib\android\libopenal.a(alBuffer.o)
 .ARM.exidx.text.alBufferiv
                0x00033074        0x8 D:\oxygine-sound\dependencies\openalext\lib\android\libopenal.a(alBuffer.o)
 .ARM.exidx.text.alGetBufferf
                0x0003307c        0x8 D:\oxygine-sound\dependencies\openalext\lib\android\libopenal.a(alBuffer.o)
 .ARM.exidx.text.alGetBuffer3f
                0x00033084        0x8 D:\oxygine-sound\dependencies\openalext\lib\android\libopenal.a(alBuffer.o)
 .ARM.exidx.text.alGetBufferfv
                0x0003308c        0x8 D:\oxygine-sound\dependencies\openalext\lib\android\libopenal.a(alBuffer.o)
 .ARM.exidx.text.alGetBuffer3i
                0x00033094        0x8 D:\oxygine-sound\dependencies\openalext\lib\android\libopenal.a(alBuffer.o)
 .ARM.exidx.text.BytesFromUserFmt
                0x0003309c        0x8 D:\oxygine-sound\dependencies\openalext\lib\android\libopenal.a(alBuffer.o)
 .ARM.exidx.text.ChannelsFromUserFmt
                0x000330a4        0x8 D:\oxygine-sound\dependencies\openalext\lib\android\libopenal.a(alBuffer.o)
 .ARM.exidx.text.BytesFromFmt
                0x000330ac        0x8 D:\oxygine-sound\dependencies\openalext\lib\android\libopenal.a(alBuffer.o)
 .ARM.exidx.text.ChannelsFromFmt
                0x000330b4        0x8 D:\oxygine-sound\dependencies\openalext\lib\android\libopenal.a(alBuffer.o)
 .ARM.exidx.text.alGetBufferi
                0x000330bc        0x8 D:\oxygine-sound\dependencies\openalext\lib\android\libopenal.a(alBuffer.o)
 .ARM.exidx.text.alGetBufferiv
                0x000330c4        0x8 D:\oxygine-sound\dependencies\openalext\lib\android\libopenal.a(alBuffer.o)
 .ARM.exidx.text.alGetBufferSamplesSOFT
                0x000330cc        0x8 D:\oxygine-sound\dependencies\openalext\lib\android\libopenal.a(alBuffer.o)
 .ARM.exidx.text.alBufferSubSamplesSOFT
                0x000330d4        0x8 D:\oxygine-sound\dependencies\openalext\lib\android\libopenal.a(alBuffer.o)
 .ARM.exidx.text.LoadData
                0x000330dc        0x8 D:\oxygine-sound\dependencies\openalext\lib\android\libopenal.a(alBuffer.o)
 .ARM.exidx.text.alBufferSamplesSOFT
                0x000330e4        0x8 D:\oxygine-sound\dependencies\openalext\lib\android\libopenal.a(alBuffer.o)
 .ARM.exidx.text.alBufferData
                0x000330ec        0x8 D:\oxygine-sound\dependencies\openalext\lib\android\libopenal.a(alBuffer.o)
 .ARM.exidx.text.alBufferSubDataSOFT
                0x000330f4        0x8 D:\oxygine-sound\dependencies\openalext\lib\android\libopenal.a(alBuffer.o)
 .ARM.exidx.text.ReleaseALBuffers
                0x000330fc        0x8 D:\oxygine-sound\dependencies\openalext\lib\android\libopenal.a(alBuffer.o)
 .ARM.exidx.text.alGetError
                0x00033104        0x8 D:\oxygine-sound\dependencies\openalext\lib\android\libopenal.a(alError.o)
 .ARM.exidx.text.alSetError
                0x0003310c        0x8 D:\oxygine-sound\dependencies\openalext\lib\android\libopenal.a(alError.o)
 .ARM.exidx.text.LockContext
                0x00033114        0x8 D:\oxygine-sound\dependencies\openalext\lib\android\libopenal.a(alSource.o)
 .ARM.exidx.text.UnlockContext
                0x0003311c        0x8 D:\oxygine-sound\dependencies\openalext\lib\android\libopenal.a(alSource.o)
 .ARM.exidx.text.GetSourceOffset
                0x00033124        0x8 D:\oxygine-sound\dependencies\openalext\lib\android\libopenal.a(alSource.o)
 .ARM.exidx.text.alDeleteSources
                0x0003312c        0x8 D:\oxygine-sound\dependencies\openalext\lib\android\libopenal.a(alSource.o)
 .ARM.exidx.text.alGenSources
                0x00033134        0x8 D:\oxygine-sound\dependencies\openalext\lib\android\libopenal.a(alSource.o)
 .ARM.exidx.text.alIsSource
                0x0003313c        0x8 D:\oxygine-sound\dependencies\openalext\lib\android\libopenal.a(alSource.o)
 .ARM.exidx.text.alSource3f
                0x00033144        0x8 D:\oxygine-sound\dependencies\openalext\lib\android\libopenal.a(alSource.o)
 .ARM.exidx.text.alSource3i
                0x0003314c        0x8 D:\oxygine-sound\dependencies\openalext\lib\android\libopenal.a(alSource.o)
 .ARM.exidx.text.alGetSourcef
                0x00033154        0x8 D:\oxygine-sound\dependencies\openalext\lib\android\libopenal.a(alSource.o)
 .ARM.exidx.text.alGetSource3f
                0x0003315c        0x8 D:\oxygine-sound\dependencies\openalext\lib\android\libopenal.a(alSource.o)
 .ARM.exidx.text.alGetSourcefv
                0x00033164        0x8 D:\oxygine-sound\dependencies\openalext\lib\android\libopenal.a(alSource.o)
 .ARM.exidx.text.alGetSourcei
                0x0003316c        0x8 D:\oxygine-sound\dependencies\openalext\lib\android\libopenal.a(alSource.o)
 .ARM.exidx.text.alGetSource3i
                0x00033174        0x8 D:\oxygine-sound\dependencies\openalext\lib\android\libopenal.a(alSource.o)
 .ARM.exidx.text.alGetSourceiv
                0x0003317c        0x8 D:\oxygine-sound\dependencies\openalext\lib\android\libopenal.a(alSource.o)
 .ARM.exidx.text.alSourceQueueBuffers
                0x00033184        0x8 D:\oxygine-sound\dependencies\openalext\lib\android\libopenal.a(alSource.o)
 .ARM.exidx.text.alSourceUnqueueBuffers
                0x0003318c        0x8 D:\oxygine-sound\dependencies\openalext\lib\android\libopenal.a(alSource.o)
 .ARM.exidx.text.ApplyOffset
                0x00033194        0x8 D:\oxygine-sound\dependencies\openalext\lib\android\libopenal.a(alSource.o)
 .ARM.exidx.text.SetSourceState
                0x0003319c        0x8 D:\oxygine-sound\dependencies\openalext\lib\android\libopenal.a(alSource.o)
 .ARM.exidx.text.alSourceRewindv
                0x000331a4        0x8 D:\oxygine-sound\dependencies\openalext\lib\android\libopenal.a(alSource.o)
 .ARM.exidx.text.alSourceRewind
                0x000331ac        0x8 D:\oxygine-sound\dependencies\openalext\lib\android\libopenal.a(alSource.o)
 .ARM.exidx.text.alSourceStopv
                0x000331b4        0x8 D:\oxygine-sound\dependencies\openalext\lib\android\libopenal.a(alSource.o)
 .ARM.exidx.text.alSourceStop
                0x000331bc        0x8 D:\oxygine-sound\dependencies\openalext\lib\android\libopenal.a(alSource.o)
 .ARM.exidx.text.alSourcePausev
                0x000331c4        0x8 D:\oxygine-sound\dependencies\openalext\lib\android\libopenal.a(alSource.o)
 .ARM.exidx.text.alSourcePause
                0x000331cc        0x8 D:\oxygine-sound\dependencies\openalext\lib\android\libopenal.a(alSource.o)
 .ARM.exidx.text.alSourcePlayv
                0x000331d4        0x8 D:\oxygine-sound\dependencies\openalext\lib\android\libopenal.a(alSource.o)
 .ARM.exidx.text.alSourcePlay
                0x000331dc        0x8 D:\oxygine-sound\dependencies\openalext\lib\android\libopenal.a(alSource.o)
 .ARM.exidx.text.alSourcef
                0x000331e4        0x8 D:\oxygine-sound\dependencies\openalext\lib\android\libopenal.a(alSource.o)
 .ARM.exidx.text.alSourcefv
                0x000331ec        0x8 D:\oxygine-sound\dependencies\openalext\lib\android\libopenal.a(alSource.o)
 .ARM.exidx.text.alSourcei
                0x000331f4        0x8 D:\oxygine-sound\dependencies\openalext\lib\android\libopenal.a(alSource.o)
 .ARM.exidx.text.alSourceiv
                0x000331fc        0x8 D:\oxygine-sound\dependencies\openalext\lib\android\libopenal.a(alSource.o)
 .ARM.exidx.text.ReleaseALSources
                0x00033204        0x8 D:\oxygine-sound\dependencies\openalext\lib\android\libopenal.a(alSource.o)
 .ARM.exidx.text.ThunkInit
                0x0003320c        0x8 D:\oxygine-sound\dependencies\openalext\lib\android\libopenal.a(alThunk.o)
 .ARM.exidx.text.ThunkExit
                0x00033214        0x8 D:\oxygine-sound\dependencies\openalext\lib\android\libopenal.a(alThunk.o)
 .ARM.exidx.text.NewThunkEntry
                0x0003321c        0x8 D:\oxygine-sound\dependencies\openalext\lib\android\libopenal.a(alThunk.o)
 .ARM.exidx.text.FreeThunkEntry
                0x00033224        0x8 D:\oxygine-sound\dependencies\openalext\lib\android\libopenal.a(alThunk.o)
 .ARM.exidx.text.alcSuspendContext
                0x0003322c        0x8 D:\oxygine-sound\dependencies\openalext\lib\android\libopenal.a(ALc.o)
 .ARM.exidx.text.alcProcessContext
                0x00033234        0x8 D:\oxygine-sound\dependencies\openalext\lib\android\libopenal.a(ALc.o)
 .ARM.exidx.text.LockLists
                0x0003323c        0x8 D:\oxygine-sound\dependencies\openalext\lib\android\libopenal.a(ALc.o)
 .ARM.exidx.text.UnlockLists
                0x00033244        0x8 D:\oxygine-sound\dependencies\openalext\lib\android\libopenal.a(ALc.o)
 .ARM.exidx.text.alcSetError
                0x0003324c        0x8 D:\oxygine-sound\dependencies\openalext\lib\android\libopenal.a(ALc.o)
 .ARM.exidx.text.alcLoopbackOpenDeviceSOFT
                0x00033254        0x8 D:\oxygine-sound\dependencies\openalext\lib\android\libopenal.a(ALc.o)
 .ARM.exidx.text.alc_initconfig
                0x0003325c        0x8 D:\oxygine-sound\dependencies\openalext\lib\android\libopenal.a(ALc.o)
 .ARM.exidx.text.alcGetThreadContext
                0x00033264        0x8 D:\oxygine-sound\dependencies\openalext\lib\android\libopenal.a(ALc.o)
 .ARM.exidx.text.alcGetCurrentContext
                0x0003326c        0x8 D:\oxygine-sound\dependencies\openalext\lib\android\libopenal.a(ALc.o)
 .ARM.exidx.text.ProbeList
                0x00033274        0x8 D:\oxygine-sound\dependencies\openalext\lib\android\libopenal.a(ALc.o)
 .ARM.exidx.text.alcCaptureOpenDevice
                0x0003327c        0x8 D:\oxygine-sound\dependencies\openalext\lib\android\libopenal.a(ALc.o)
 .ARM.exidx.text.alcOpenDevice
                0x00033284        0x8 D:\oxygine-sound\dependencies\openalext\lib\android\libopenal.a(ALc.o)
 .ARM.exidx.text.exit.ReleaseALC
                0x0003328c        0x8 D:\oxygine-sound\dependencies\openalext\lib\android\libopenal.a(ALc.o)
 .ARM.exidx.text.AppendList
                0x00033294        0x8 D:\oxygine-sound\dependencies\openalext\lib\android\libopenal.a(ALc.o)
 .ARM.exidx.text.startup.alc_init
                0x0003329c        0x8 D:\oxygine-sound\dependencies\openalext\lib\android\libopenal.a(ALc.o)
 .ARM.exidx.text.exit.alc_deinit
                0x000332a4        0x8 D:\oxygine-sound\dependencies\openalext\lib\android\libopenal.a(ALc.o)
 .ARM.exidx.text.AppendAllDeviceList
                0x000332ac        0x8 D:\oxygine-sound\dependencies\openalext\lib\android\libopenal.a(ALc.o)
 .ARM.exidx.text.AppendCaptureDeviceList
                0x000332b4        0x8 D:\oxygine-sound\dependencies\openalext\lib\android\libopenal.a(ALc.o)
 .ARM.exidx.text.SetDefaultWFXChannelOrder
                0x000332bc        0x8 D:\oxygine-sound\dependencies\openalext\lib\android\libopenal.a(ALc.o)
 .ARM.exidx.text.SetDefaultChannelOrder
                0x000332c4        0x8 D:\oxygine-sound\dependencies\openalext\lib\android\libopenal.a(ALc.o)
 .ARM.exidx.text.DevFmtTypeString
                0x000332cc        0x8 D:\oxygine-sound\dependencies\openalext\lib\android\libopenal.a(ALc.o)
 .ARM.exidx.text.DevFmtChannelsString
                0x000332d4        0x8 D:\oxygine-sound\dependencies\openalext\lib\android\libopenal.a(ALc.o)
 .ARM.exidx.text.BytesFromDevFmt
                0x000332dc        0x8 D:\oxygine-sound\dependencies\openalext\lib\android\libopenal.a(ALc.o)
 .ARM.exidx.text.ChannelsFromDevFmt
                0x000332e4        0x8 D:\oxygine-sound\dependencies\openalext\lib\android\libopenal.a(ALc.o)
 .ARM.exidx.text.ALCdevice_IncRef
                0x000332ec        0x8 D:\oxygine-sound\dependencies\openalext\lib\android\libopenal.a(ALc.o)
 .ARM.exidx.text.VerifyDevice
                0x000332f4        0x8 D:\oxygine-sound\dependencies\openalext\lib\android\libopenal.a(ALc.o)
 .ARM.exidx.text.ALCdevice_DecRef
                0x000332fc        0x8 D:\oxygine-sound\dependencies\openalext\lib\android\libopenal.a(ALc.o)
 .ARM.exidx.text.alcRenderSamplesSOFT
                0x00033304        0x8 D:\oxygine-sound\dependencies\openalext\lib\android\libopenal.a(ALc.o)
 .ARM.exidx.text.alcIsRenderFormatSupportedSOFT
                0x0003330c        0x8 D:\oxygine-sound\dependencies\openalext\lib\android\libopenal.a(ALc.o)
 .ARM.exidx.text.alcCreateContext
                0x00033314        0x8 D:\oxygine-sound\dependencies\openalext\lib\android\libopenal.a(ALc.o)
 .ARM.exidx.text.alcGetEnumValue
                0x0003331c        0x8 D:\oxygine-sound\dependencies\openalext\lib\android\libopenal.a(ALc.o)
 .ARM.exidx.text.alcGetProcAddress
                0x00033324        0x8 D:\oxygine-sound\dependencies\openalext\lib\android\libopenal.a(ALc.o)
 .ARM.exidx.text.alcIsExtensionPresent
                0x0003332c        0x8 D:\oxygine-sound\dependencies\openalext\lib\android\libopenal.a(ALc.o)
 .ARM.exidx.text.alcGetIntegerv
                0x00033334        0x8 D:\oxygine-sound\dependencies\openalext\lib\android\libopenal.a(ALc.o)
 .ARM.exidx.text.alcGetString
                0x0003333c        0x8 D:\oxygine-sound\dependencies\openalext\lib\android\libopenal.a(ALc.o)
 .ARM.exidx.text.alcGetError
                0x00033344        0x8 D:\oxygine-sound\dependencies\openalext\lib\android\libopenal.a(ALc.o)
 .ARM.exidx.text.alcCaptureSamples
                0x0003334c        0x8 D:\oxygine-sound\dependencies\openalext\lib\android\libopenal.a(ALc.o)
 .ARM.exidx.text.alcCaptureStop
                0x00033354        0x8 D:\oxygine-sound\dependencies\openalext\lib\android\libopenal.a(ALc.o)
 .ARM.exidx.text.alcCaptureStart
                0x0003335c        0x8 D:\oxygine-sound\dependencies\openalext\lib\android\libopenal.a(ALc.o)
 .ARM.exidx.text.alcCaptureCloseDevice
                0x00033364        0x8 D:\oxygine-sound\dependencies\openalext\lib\android\libopenal.a(ALc.o)
 .ARM.exidx.text.ALCcontext_IncRef
                0x0003336c        0x8 D:\oxygine-sound\dependencies\openalext\lib\android\libopenal.a(ALc.o)
 .ARM.exidx.text.VerifyContext
                0x00033374        0x8 D:\oxygine-sound\dependencies\openalext\lib\android\libopenal.a(ALc.o)
 .ARM.exidx.text.ALCcontext_DecRef
                0x0003337c        0x8 D:\oxygine-sound\dependencies\openalext\lib\android\libopenal.a(ALc.o)
 .ARM.exidx.text.ReleaseContext
                0x00033384        0x8 D:\oxygine-sound\dependencies\openalext\lib\android\libopenal.a(ALc.o)
 .ARM.exidx.text.alcCloseDevice
                0x0003338c        0x8 D:\oxygine-sound\dependencies\openalext\lib\android\libopenal.a(ALc.o)
 .ARM.exidx.text.alcGetContextsDevice
                0x00033394        0x8 D:\oxygine-sound\dependencies\openalext\lib\android\libopenal.a(ALc.o)
 .ARM.exidx.text.alcDestroyContext
                0x0003339c        0x8 D:\oxygine-sound\dependencies\openalext\lib\android\libopenal.a(ALc.o)
 .ARM.exidx.text.alcSetThreadContext
                0x000333a4        0x8 D:\oxygine-sound\dependencies\openalext\lib\android\libopenal.a(ALc.o)
 .ARM.exidx.text.alcMakeContextCurrent
                0x000333ac        0x8 D:\oxygine-sound\dependencies\openalext\lib\android\libopenal.a(ALc.o)
 .ARM.exidx.text.ReleaseThreadCtx
                0x000333b4        0x8 D:\oxygine-sound\dependencies\openalext\lib\android\libopenal.a(ALc.o)
 .ARM.exidx.text.GetContextRef
                0x000333bc        0x8 D:\oxygine-sound\dependencies\openalext\lib\android\libopenal.a(ALc.o)
 .ARM.exidx.text.LoadConfigFromFile
                0x000333c4        0x8 D:\oxygine-sound\dependencies\openalext\lib\android\libopenal.a(alcConfig.o)
 .ARM.exidx.text.ReadALConfig
                0x000333cc        0x8 D:\oxygine-sound\dependencies\openalext\lib\android\libopenal.a(alcConfig.o)
 .ARM.exidx.text.FreeALConfig
                0x000333d4        0x8 D:\oxygine-sound\dependencies\openalext\lib\android\libopenal.a(alcConfig.o)
 .ARM.exidx.text.GetConfigValue
                0x000333dc        0x8 D:\oxygine-sound\dependencies\openalext\lib\android\libopenal.a(alcConfig.o)
 .ARM.exidx.text.ConfigValueExists
                0x000333e4        0x8 D:\oxygine-sound\dependencies\openalext\lib\android\libopenal.a(alcConfig.o)
 .ARM.exidx.text.ConfigValueStr
                0x000333ec        0x8 D:\oxygine-sound\dependencies\openalext\lib\android\libopenal.a(alcConfig.o)
 .ARM.exidx.text.ConfigValueInt
                0x000333f4        0x8 D:\oxygine-sound\dependencies\openalext\lib\android\libopenal.a(alcConfig.o)
 .ARM.exidx.text.ConfigValueUInt
                0x000333fc        0x8 D:\oxygine-sound\dependencies\openalext\lib\android\libopenal.a(alcConfig.o)
 .ARM.exidx.text.ConfigValueFloat
                0x00033404        0x8 D:\oxygine-sound\dependencies\openalext\lib\android\libopenal.a(alcConfig.o)
 .ARM.exidx.text.GetConfigValueBool
                0x0003340c        0x8 D:\oxygine-sound\dependencies\openalext\lib\android\libopenal.a(alcConfig.o)
 .ARM.exidx.text.DelayLineIn
                0x00033414        0x8 D:\oxygine-sound\dependencies\openalext\lib\android\libopenal.a(alcReverb.o)
 .ARM.exidx.text.EarlyDelayLineOut
                0x0003341c        0x8 D:\oxygine-sound\dependencies\openalext\lib\android\libopenal.a(alcReverb.o)
 .ARM.exidx.text.EarlyReflection
                0x00033424        0x8 D:\oxygine-sound\dependencies\openalext\lib\android\libopenal.a(alcReverb.o)
 .ARM.exidx.text.LateAllPassInOut
                0x0003342c        0x8 D:\oxygine-sound\dependencies\openalext\lib\android\libopenal.a(alcReverb.o)
 .ARM.exidx.text.LateDelayLineOut
                0x00033434        0x8 D:\oxygine-sound\dependencies\openalext\lib\android\libopenal.a(alcReverb.o)
 .ARM.exidx.text.LateReverb
                0x0003343c        0x8 D:\oxygine-sound\dependencies\openalext\lib\android\libopenal.a(alcReverb.o)
 .ARM.exidx.text.VerbProcess
                0x00033444        0x8 D:\oxygine-sound\dependencies\openalext\lib\android\libopenal.a(alcReverb.o)
 .ARM.exidx.text.CalcLineLength
                0x0003344c        0x8 D:\oxygine-sound\dependencies\openalext\lib\android\libopenal.a(alcReverb.o)
 .ARM.exidx.text.EAXVerbProcess
                0x00033454        0x8 D:\oxygine-sound\dependencies\openalext\lib\android\libopenal.a(alcReverb.o)
 .ARM.exidx.text.ReverbUpdate
                0x0003345c        0x8 D:\oxygine-sound\dependencies\openalext\lib\android\libopenal.a(alcReverb.o)
 .ARM.exidx.text.ReverbDeviceUpdate
                0x00033464        0x8 D:\oxygine-sound\dependencies\openalext\lib\android\libopenal.a(alcReverb.o)
 .ARM.exidx.text.ReverbDestroy
                0x0003346c        0x8 D:\oxygine-sound\dependencies\openalext\lib\android\libopenal.a(alcReverb.o)
 .ARM.exidx.text.ReverbCreate
                0x00033474        0x8 D:\oxygine-sound\dependencies\openalext\lib\android\libopenal.a(alcReverb.o)
 .ARM.exidx.text.aluDotproduct
                0x0003347c        0x8 D:\oxygine-sound\dependencies\openalext\lib\android\libopenal.a(ALu.o)
 .ARM.exidx.text.aluMatrixVector
                0x00033484        0x8 D:\oxygine-sound\dependencies\openalext\lib\android\libopenal.a(ALu.o)
 .ARM.exidx.text.aluNormalize
                0x0003348c        0x8 D:\oxygine-sound\dependencies\openalext\lib\android\libopenal.a(ALu.o)
 .ARM.exidx.text.aluF2I
                0x00033494        0x8 D:\oxygine-sound\dependencies\openalext\lib\android\libopenal.a(ALu.o)
 .ARM.exidx.text.CalcNonAttnSourceParams
                0x0003349c        0x8 D:\oxygine-sound\dependencies\openalext\lib\android\libopenal.a(ALu.o)
 .ARM.exidx.text.CalcSourceParams
                0x000334a4        0x8 D:\oxygine-sound\dependencies\openalext\lib\android\libopenal.a(ALu.o)
 .ARM.exidx.text.aluMixData
                0x000334ac        0x8 D:\oxygine-sound\dependencies\openalext\lib\android\libopenal.a(ALu.o)
 .ARM.exidx.text.aluHandleDisconnect
                0x000334b4        0x8 D:\oxygine-sound\dependencies\openalext\lib\android\libopenal.a(ALu.o)
 .ARM.exidx.text.init
                0x000334bc        0x8 D:\oxygine-sound\dependencies\openalext\lib\android\libopenal.a(bs2b.o)
 .ARM.exidx.text.bs2b_set_level
                0x000334c4        0x8 D:\oxygine-sound\dependencies\openalext\lib\android\libopenal.a(bs2b.o)
 .ARM.exidx.text.bs2b_get_level
                0x000334cc        0x8 D:\oxygine-sound\dependencies\openalext\lib\android\libopenal.a(bs2b.o)
 .ARM.exidx.text.bs2b_set_srate
                0x000334d4        0x8 D:\oxygine-sound\dependencies\openalext\lib\android\libopenal.a(bs2b.o)
 .ARM.exidx.text.bs2b_get_srate
                0x000334dc        0x8 D:\oxygine-sound\dependencies\openalext\lib\android\libopenal.a(bs2b.o)
 .ARM.exidx.text.bs2b_clear
                0x000334e4        0x8 D:\oxygine-sound\dependencies\openalext\lib\android\libopenal.a(bs2b.o)
 .ARM.exidx.text.bs2b_cross_feed
                0x000334ec        0x8 D:\oxygine-sound\dependencies\openalext\lib\android\libopenal.a(bs2b.o)
 .ARM.exidx.text.Lock
                0x000334f4        0x8 D:\oxygine-sound\dependencies\openalext\lib\android\libopenal.a(helpers.o)
 .ARM.exidx.text.InitializeCriticalSection
                0x000334fc        0x8 D:\oxygine-sound\dependencies\openalext\lib\android\libopenal.a(helpers.o)
 .ARM.exidx.text.DeleteCriticalSection
                0x00033504        0x8 D:\oxygine-sound\dependencies\openalext\lib\android\libopenal.a(helpers.o)
 .ARM.exidx.text.EnterCriticalSection
                0x0003350c        0x8 D:\oxygine-sound\dependencies\openalext\lib\android\libopenal.a(helpers.o)
 .ARM.exidx.text.LeaveCriticalSection
                0x00033514        0x8 D:\oxygine-sound\dependencies\openalext\lib\android\libopenal.a(helpers.o)
 .ARM.exidx.text.timeGetTime
                0x0003351c        0x8 D:\oxygine-sound\dependencies\openalext\lib\android\libopenal.a(helpers.o)
 .ARM.exidx.text.Sleep
                0x00033524        0x8 D:\oxygine-sound\dependencies\openalext\lib\android\libopenal.a(helpers.o)
 .ARM.exidx.text.LoadLib
                0x0003352c        0x8 D:\oxygine-sound\dependencies\openalext\lib\android\libopenal.a(helpers.o)
 .ARM.exidx.text.CloseLib
                0x00033534        0x8 D:\oxygine-sound\dependencies\openalext\lib\android\libopenal.a(helpers.o)
 .ARM.exidx.text.al_print
                0x0003353c        0x8 D:\oxygine-sound\dependencies\openalext\lib\android\libopenal.a(helpers.o)
 .ARM.exidx.text.GetSymbol
                0x00033544        0x8 D:\oxygine-sound\dependencies\openalext\lib\android\libopenal.a(helpers.o)
 .ARM.exidx.text.SetRTPriority
                0x0003354c        0x8 D:\oxygine-sound\dependencies\openalext\lib\android\libopenal.a(helpers.o)
 .ARM.exidx.text.RWLockInit
                0x00033554        0x8 D:\oxygine-sound\dependencies\openalext\lib\android\libopenal.a(helpers.o)
 .ARM.exidx.text.ReadLock
                0x0003355c        0x8 D:\oxygine-sound\dependencies\openalext\lib\android\libopenal.a(helpers.o)
 .ARM.exidx.text.ReadUnlock
                0x00033564        0x8 D:\oxygine-sound\dependencies\openalext\lib\android\libopenal.a(helpers.o)
 .ARM.exidx.text.WriteLock
                0x0003356c        0x8 D:\oxygine-sound\dependencies\openalext\lib\android\libopenal.a(helpers.o)
 .ARM.exidx.text.WriteUnlock
                0x00033574        0x8 D:\oxygine-sound\dependencies\openalext\lib\android\libopenal.a(helpers.o)
 .ARM.exidx.text.InitUIntMap
                0x0003357c        0x8 D:\oxygine-sound\dependencies\openalext\lib\android\libopenal.a(helpers.o)
 .ARM.exidx.text.ResetUIntMap
                0x00033584        0x8 D:\oxygine-sound\dependencies\openalext\lib\android\libopenal.a(helpers.o)
 .ARM.exidx.text.InsertUIntMapEntry
                0x0003358c        0x8 D:\oxygine-sound\dependencies\openalext\lib\android\libopenal.a(helpers.o)
 .ARM.exidx.text.RemoveUIntMapKey
                0x00033594        0x8 D:\oxygine-sound\dependencies\openalext\lib\android\libopenal.a(helpers.o)
 .ARM.exidx.text.LookupUIntMapKey
                0x0003359c        0x8 D:\oxygine-sound\dependencies\openalext\lib\android\libopenal.a(helpers.o)
 .ARM.exidx.text.CalcAzIndices
                0x000335a4        0x8 D:\oxygine-sound\dependencies\openalext\lib\android\libopenal.a(hrtf.o)
 .ARM.exidx.text.CalcHrtfDelta
                0x000335ac        0x8 D:\oxygine-sound\dependencies\openalext\lib\android\libopenal.a(hrtf.o)
 .ARM.exidx.text.GetLerpedHrtfCoeffs
                0x000335b4        0x8 D:\oxygine-sound\dependencies\openalext\lib\android\libopenal.a(hrtf.o)
 .ARM.exidx.text.GetMovingHrtfCoeffs
                0x000335bc        0x8 D:\oxygine-sound\dependencies\openalext\lib\android\libopenal.a(hrtf.o)
 .ARM.exidx.text.GetHrtf
                0x000335c4        0x8 D:\oxygine-sound\dependencies\openalext\lib\android\libopenal.a(hrtf.o)
 .ARM.exidx.text.InitHrtf
                0x000335cc        0x8 D:\oxygine-sound\dependencies\openalext\lib\android\libopenal.a(hrtf.o)
 .ARM.exidx.text.FreeHrtf
                0x000335d4        0x8 D:\oxygine-sound\dependencies\openalext\lib\android\libopenal.a(hrtf.o)
 .ARM.exidx.text.lpFilter2P
                0x000335dc        0x8 D:\oxygine-sound\dependencies\openalext\lib\android\libopenal.a(mixer.o)
 .ARM.exidx.text.lpFilter2PC
                0x000335e4        0x8 D:\oxygine-sound\dependencies\openalext\lib\android\libopenal.a(mixer.o)
 .ARM.exidx.text.lerp32
                0x000335ec        0x8 D:\oxygine-sound\dependencies\openalext\lib\android\libopenal.a(mixer.o)
 .ARM.exidx.text.cubic32
                0x000335f4        0x8 D:\oxygine-sound\dependencies\openalext\lib\android\libopenal.a(mixer.o)
 .ARM.exidx.text.ApplyCoeffs
                0x000335fc        0x8 D:\oxygine-sound\dependencies\openalext\lib\android\libopenal.a(mixer.o)
 .ARM.exidx.text.Mix_ALfloat_point32
                0x00033604        0x8 D:\oxygine-sound\dependencies\openalext\lib\android\libopenal.a(mixer.o)
 .ARM.exidx.text.Mix_ALfloat_lerp32
                0x0003360c        0x8 D:\oxygine-sound\dependencies\openalext\lib\android\libopenal.a(mixer.o)
 .ARM.exidx.text.Mix_ALfloat_cubic32
                0x00033614        0x8 D:\oxygine-sound\dependencies\openalext\lib\android\libopenal.a(mixer.o)
 .ARM.exidx.text.LoadStack
                0x0003361c        0x8 D:\oxygine-sound\dependencies\openalext\lib\android\libopenal.a(mixer.o)
 .ARM.exidx.text.SilenceStack
                0x00033624        0x8 D:\oxygine-sound\dependencies\openalext\lib\android\libopenal.a(mixer.o)
 .ARM.exidx.text.Mix_Hrtf_ALfloat_cubic32
                0x0003362c        0x8 D:\oxygine-sound\dependencies\openalext\lib\android\libopenal.a(mixer.o)
 .ARM.exidx.text.Mix_Hrtf_ALfloat_lerp32
                0x00033634        0x8 D:\oxygine-sound\dependencies\openalext\lib\android\libopenal.a(mixer.o)
 .ARM.exidx.text.Mix_Hrtf_ALfloat_point32
                0x0003363c        0x8 D:\oxygine-sound\dependencies\openalext\lib\android\libopenal.a(mixer.o)
 .ARM.exidx.text.SelectMixer
                0x00033644        0x8 D:\oxygine-sound\dependencies\openalext\lib\android\libopenal.a(mixer.o)
 .ARM.exidx.text.SelectHrtfMixer
                0x0003364c        0x8 D:\oxygine-sound\dependencies\openalext\lib\android\libopenal.a(mixer.o)
 .ARM.exidx.text.MixSource
                0x00033654        0x8 D:\oxygine-sound\dependencies\openalext\lib\android\libopenal.a(mixer.o)
 .ARM.exidx.text.aluCart2LUTpos
                0x0003365c        0x8 D:\oxygine-sound\dependencies\openalext\lib\android\libopenal.a(panning.o)
 .ARM.exidx.text.aluInitPanning
                0x00033664        0x8 D:\oxygine-sound\dependencies\openalext\lib\android\libopenal.a(panning.o)
 .ARM.exidx.text.res_str
                0x0003366c        0x8 D:\oxygine-sound\dependencies\openalext\lib\android\libopenal.a(opensl.o)
 .ARM.exidx.text.opensl_stop_playback
                0x00033674        0x8 D:\oxygine-sound\dependencies\openalext\lib\android\libopenal.a(opensl.o)
 .ARM.exidx.text.opensl_close_playback
                0x0003367c        0x8 D:\oxygine-sound\dependencies\openalext\lib\android\libopenal.a(opensl.o)
 .ARM.exidx.text.opensl_start_playback
                0x00033684        0x8 D:\oxygine-sound\dependencies\openalext\lib\android\libopenal.a(opensl.o)
 .ARM.exidx.text.opensl_callback
                0x0003368c        0x8 D:\oxygine-sound\dependencies\openalext\lib\android\libopenal.a(opensl.o)
 .ARM.exidx.text.opensl_reset_playback
                0x00033694        0x8 D:\oxygine-sound\dependencies\openalext\lib\android\libopenal.a(opensl.o)
 .ARM.exidx.text.opensl_open_playback
                0x0003369c        0x8 D:\oxygine-sound\dependencies\openalext\lib\android\libopenal.a(opensl.o)
 .ARM.exidx.text.alc_opensl_init
                0x000336a4        0x8 D:\oxygine-sound\dependencies\openalext\lib\android\libopenal.a(opensl.o)
 .ARM.exidx.text.alc_opensl_deinit
                0x000336ac        0x8 D:\oxygine-sound\dependencies\openalext\lib\android\libopenal.a(opensl.o)
 .ARM.exidx.text.alc_opensl_probe
                0x000336b4        0x8 D:\oxygine-sound\dependencies\openalext\lib\android\libopenal.a(opensl.o)
 .ARM.exidx.text.null_stop_playback
                0x000336bc        0x8 D:\oxygine-sound\dependencies\openalext\lib\android\libopenal.a(null.o)
 .ARM.exidx.text.null_start_playback
                0x000336c4        0x8 D:\oxygine-sound\dependencies\openalext\lib\android\libopenal.a(null.o)
 .ARM.exidx.text.NullProc
                0x000336cc        0x8 D:\oxygine-sound\dependencies\openalext\lib\android\libopenal.a(null.o)
 .ARM.exidx.text.null_reset_playback
                0x000336d4        0x8 D:\oxygine-sound\dependencies\openalext\lib\android\libopenal.a(null.o)
 .ARM.exidx.text.null_close_playback
                0x000336dc        0x8 D:\oxygine-sound\dependencies\openalext\lib\android\libopenal.a(null.o)
 .ARM.exidx.text.null_open_playback
                0x000336e4        0x8 D:\oxygine-sound\dependencies\openalext\lib\android\libopenal.a(null.o)
 .ARM.exidx.text.alc_null_init
                0x000336ec        0x8 D:\oxygine-sound\dependencies\openalext\lib\android\libopenal.a(null.o)
 .ARM.exidx.text.alc_null_deinit
                0x000336f4        0x8 D:\oxygine-sound\dependencies\openalext\lib\android\libopenal.a(null.o)
 .ARM.exidx.text.alc_null_probe
                0x000336fc        0x8 D:\oxygine-sound\dependencies\openalext\lib\android\libopenal.a(null.o)
 .ARM.exidx.text.loopback_close_playback
                0x00033704        0x8 D:\oxygine-sound\dependencies\openalext\lib\android\libopenal.a(loopback.o)
 .ARM.exidx.text.loopback_start_playback
                0x0003370c        0x8 D:\oxygine-sound\dependencies\openalext\lib\android\libopenal.a(loopback.o)
 .ARM.exidx.text.loopback_stop_playback
                0x00033714        0x8 D:\oxygine-sound\dependencies\openalext\lib\android\libopenal.a(loopback.o)
 .ARM.exidx.text.loopback_reset_playback
                0x0003371c        0x8 D:\oxygine-sound\dependencies\openalext\lib\android\libopenal.a(loopback.o)
 .ARM.exidx.text.loopback_open_playback
                0x00033724        0x8 D:\oxygine-sound\dependencies\openalext\lib\android\libopenal.a(loopback.o)
 .ARM.exidx.text.alc_loopback_init
                0x0003372c        0x8 D:\oxygine-sound\dependencies\openalext\lib\android\libopenal.a(loopback.o)
 .ARM.exidx.text.alc_loopback_deinit
                0x00033734        0x8 D:\oxygine-sound\dependencies\openalext\lib\android\libopenal.a(loopback.o)
 .ARM.exidx.text.alc_loopback_probe
                0x0003373c        0x8 D:\oxygine-sound\dependencies\openalext\lib\android\libopenal.a(loopback.o)
 .ARM.exidx.text.NoneDeviceUpdate
                0x00033744        0x8 D:\oxygine-sound\dependencies\openalext\lib\android\libopenal.a(alAuxEffectSlot.o)
 .ARM.exidx.text.NoneUpdate
                0x0003374c        0x8 D:\oxygine-sound\dependencies\openalext\lib\android\libopenal.a(alAuxEffectSlot.o)
 .ARM.exidx.text.NoneProcess
                0x00033754        0x8 D:\oxygine-sound\dependencies\openalext\lib\android\libopenal.a(alAuxEffectSlot.o)
 .ARM.exidx.text.NoneDestroy
                0x0003375c        0x8 D:\oxygine-sound\dependencies\openalext\lib\android\libopenal.a(alAuxEffectSlot.o)
 .ARM.exidx.text.RemoveEffectSlotArray
                0x00033764        0x8 D:\oxygine-sound\dependencies\openalext\lib\android\libopenal.a(alAuxEffectSlot.o)
 .ARM.exidx.text.alDeleteAuxiliaryEffectSlots
                0x0003376c        0x8 D:\oxygine-sound\dependencies\openalext\lib\android\libopenal.a(alAuxEffectSlot.o)
 .ARM.exidx.text.alIsAuxiliaryEffectSlot
                0x00033774        0x8 D:\oxygine-sound\dependencies\openalext\lib\android\libopenal.a(alAuxEffectSlot.o)
 .ARM.exidx.text.alAuxiliaryEffectSlotf
                0x0003377c        0x8 D:\oxygine-sound\dependencies\openalext\lib\android\libopenal.a(alAuxEffectSlot.o)
 .ARM.exidx.text.alAuxiliaryEffectSlotfv
                0x00033784        0x8 D:\oxygine-sound\dependencies\openalext\lib\android\libopenal.a(alAuxEffectSlot.o)
 .ARM.exidx.text.alGetAuxiliaryEffectSloti
                0x0003378c        0x8 D:\oxygine-sound\dependencies\openalext\lib\android\libopenal.a(alAuxEffectSlot.o)
 .ARM.exidx.text.alGetAuxiliaryEffectSlotiv
                0x00033794        0x8 D:\oxygine-sound\dependencies\openalext\lib\android\libopenal.a(alAuxEffectSlot.o)
 .ARM.exidx.text.alGetAuxiliaryEffectSlotf
                0x0003379c        0x8 D:\oxygine-sound\dependencies\openalext\lib\android\libopenal.a(alAuxEffectSlot.o)
 .ARM.exidx.text.alGetAuxiliaryEffectSlotfv
                0x000337a4        0x8 D:\oxygine-sound\dependencies\openalext\lib\android\libopenal.a(alAuxEffectSlot.o)
 .ARM.exidx.text.NoneCreate
                0x000337ac        0x8 D:\oxygine-sound\dependencies\openalext\lib\android\libopenal.a(alAuxEffectSlot.o)
 .ARM.exidx.text.InitializeEffect
                0x000337b4        0x8 D:\oxygine-sound\dependencies\openalext\lib\android\libopenal.a(alAuxEffectSlot.o)
 .ARM.exidx.text.alAuxiliaryEffectSloti
                0x000337bc        0x8 D:\oxygine-sound\dependencies\openalext\lib\android\libopenal.a(alAuxEffectSlot.o)
 .ARM.exidx.text.alAuxiliaryEffectSlotiv
                0x000337c4        0x8 D:\oxygine-sound\dependencies\openalext\lib\android\libopenal.a(alAuxEffectSlot.o)
 .ARM.exidx.text.InitEffectSlot
                0x000337cc        0x8 D:\oxygine-sound\dependencies\openalext\lib\android\libopenal.a(alAuxEffectSlot.o)
 .ARM.exidx.text.alGenAuxiliaryEffectSlots
                0x000337d4        0x8 D:\oxygine-sound\dependencies\openalext\lib\android\libopenal.a(alAuxEffectSlot.o)
 .ARM.exidx.text.ReleaseALAuxiliaryEffectSlots
                0x000337dc        0x8 D:\oxygine-sound\dependencies\openalext\lib\android\libopenal.a(alAuxEffectSlot.o)
 .ARM.exidx.text.InitEffectParams
                0x000337e4        0x8 D:\oxygine-sound\dependencies\openalext\lib\android\libopenal.a(alEffect.o)
 .ARM.exidx.text.null_GetParamfv
                0x000337ec        0x8 D:\oxygine-sound\dependencies\openalext\lib\android\libopenal.a(alEffect.o)
 .ARM.exidx.text.null_GetParamf
                0x000337f4        0x8 D:\oxygine-sound\dependencies\openalext\lib\android\libopenal.a(alEffect.o)
 .ARM.exidx.text.null_GetParamiv
                0x000337fc        0x8 D:\oxygine-sound\dependencies\openalext\lib\android\libopenal.a(alEffect.o)
 .ARM.exidx.text.null_GetParami
                0x00033804        0x8 D:\oxygine-sound\dependencies\openalext\lib\android\libopenal.a(alEffect.o)
 .ARM.exidx.text.null_SetParamfv
                0x0003380c        0x8 D:\oxygine-sound\dependencies\openalext\lib\android\libopenal.a(alEffect.o)
 .ARM.exidx.text.null_SetParamf
                0x00033814        0x8 D:\oxygine-sound\dependencies\openalext\lib\android\libopenal.a(alEffect.o)
 .ARM.exidx.text.null_SetParamiv
                0x0003381c        0x8 D:\oxygine-sound\dependencies\openalext\lib\android\libopenal.a(alEffect.o)
 .ARM.exidx.text.null_SetParami
                0x00033824        0x8 D:\oxygine-sound\dependencies\openalext\lib\android\libopenal.a(alEffect.o)
 .ARM.exidx.text.ded_GetParamf
                0x0003382c        0x8 D:\oxygine-sound\dependencies\openalext\lib\android\libopenal.a(alEffect.o)
 .ARM.exidx.text.ded_GetParamfv
                0x00033834        0x8 D:\oxygine-sound\dependencies\openalext\lib\android\libopenal.a(alEffect.o)
 .ARM.exidx.text.ded_GetParami
                0x0003383c        0x8 D:\oxygine-sound\dependencies\openalext\lib\android\libopenal.a(alEffect.o)
 .ARM.exidx.text.ded_GetParamiv
                0x00033844        0x8 D:\oxygine-sound\dependencies\openalext\lib\android\libopenal.a(alEffect.o)
 .ARM.exidx.text.ded_SetParami
                0x0003384c        0x8 D:\oxygine-sound\dependencies\openalext\lib\android\libopenal.a(alEffect.o)
 .ARM.exidx.text.ded_SetParamiv
                0x00033854        0x8 D:\oxygine-sound\dependencies\openalext\lib\android\libopenal.a(alEffect.o)
 .ARM.exidx.text.mod_GetParamf
                0x0003385c        0x8 D:\oxygine-sound\dependencies\openalext\lib\android\libopenal.a(alEffect.o)
 .ARM.exidx.text.mod_GetParamfv
                0x00033864        0x8 D:\oxygine-sound\dependencies\openalext\lib\android\libopenal.a(alEffect.o)
 .ARM.exidx.text.mod_GetParami
                0x0003386c        0x8 D:\oxygine-sound\dependencies\openalext\lib\android\libopenal.a(alEffect.o)
 .ARM.exidx.text.mod_GetParamiv
                0x00033874        0x8 D:\oxygine-sound\dependencies\openalext\lib\android\libopenal.a(alEffect.o)
 .ARM.exidx.text.echo_GetParamf
                0x0003387c        0x8 D:\oxygine-sound\dependencies\openalext\lib\android\libopenal.a(alEffect.o)
 .ARM.exidx.text.echo_GetParamfv
                0x00033884        0x8 D:\oxygine-sound\dependencies\openalext\lib\android\libopenal.a(alEffect.o)
 .ARM.exidx.text.echo_GetParami
                0x0003388c        0x8 D:\oxygine-sound\dependencies\openalext\lib\android\libopenal.a(alEffect.o)
 .ARM.exidx.text.echo_GetParamiv
                0x00033894        0x8 D:\oxygine-sound\dependencies\openalext\lib\android\libopenal.a(alEffect.o)
 .ARM.exidx.text.echo_SetParamf
                0x0003389c        0x8 D:\oxygine-sound\dependencies\openalext\lib\android\libopenal.a(alEffect.o)
 .ARM.exidx.text.echo_SetParamfv
                0x000338a4        0x8 D:\oxygine-sound\dependencies\openalext\lib\android\libopenal.a(alEffect.o)
 .ARM.exidx.text.echo_SetParami
                0x000338ac        0x8 D:\oxygine-sound\dependencies\openalext\lib\android\libopenal.a(alEffect.o)
 .ARM.exidx.text.echo_SetParamiv
                0x000338b4        0x8 D:\oxygine-sound\dependencies\openalext\lib\android\libopenal.a(alEffect.o)
 .ARM.exidx.text.reverb_GetParamf
                0x000338bc        0x8 D:\oxygine-sound\dependencies\openalext\lib\android\libopenal.a(alEffect.o)
 .ARM.exidx.text.reverb_GetParamfv
                0x000338c4        0x8 D:\oxygine-sound\dependencies\openalext\lib\android\libopenal.a(alEffect.o)
 .ARM.exidx.text.reverb_GetParami
                0x000338cc        0x8 D:\oxygine-sound\dependencies\openalext\lib\android\libopenal.a(alEffect.o)
 .ARM.exidx.text.reverb_GetParamiv
                0x000338d4        0x8 D:\oxygine-sound\dependencies\openalext\lib\android\libopenal.a(alEffect.o)
 .ARM.exidx.text.reverb_SetParamf
                0x000338dc        0x8 D:\oxygine-sound\dependencies\openalext\lib\android\libopenal.a(alEffect.o)
 .ARM.exidx.text.reverb_SetParamfv
                0x000338e4        0x8 D:\oxygine-sound\dependencies\openalext\lib\android\libopenal.a(alEffect.o)
 .ARM.exidx.text.reverb_SetParami
                0x000338ec        0x8 D:\oxygine-sound\dependencies\openalext\lib\android\libopenal.a(alEffect.o)
 .ARM.exidx.text.reverb_SetParamiv
                0x000338f4        0x8 D:\oxygine-sound\dependencies\openalext\lib\android\libopenal.a(alEffect.o)
 .ARM.exidx.text.eaxreverb_GetParamf
                0x000338fc        0x8 D:\oxygine-sound\dependencies\openalext\lib\android\libopenal.a(alEffect.o)
 .ARM.exidx.text.eaxreverb_GetParami
                0x00033904        0x8 D:\oxygine-sound\dependencies\openalext\lib\android\libopenal.a(alEffect.o)
 .ARM.exidx.text.eaxreverb_GetParamiv
                0x0003390c        0x8 D:\oxygine-sound\dependencies\openalext\lib\android\libopenal.a(alEffect.o)
 .ARM.exidx.text.eaxreverb_SetParamf
                0x00033914        0x8 D:\oxygine-sound\dependencies\openalext\lib\android\libopenal.a(alEffect.o)
 .ARM.exidx.text.eaxreverb_SetParami
                0x0003391c        0x8 D:\oxygine-sound\dependencies\openalext\lib\android\libopenal.a(alEffect.o)
 .ARM.exidx.text.eaxreverb_SetParamiv
                0x00033924        0x8 D:\oxygine-sound\dependencies\openalext\lib\android\libopenal.a(alEffect.o)
 .ARM.exidx.text.ded_SetParamf
                0x0003392c        0x8 D:\oxygine-sound\dependencies\openalext\lib\android\libopenal.a(alEffect.o)
 .ARM.exidx.text.ded_SetParamfv
                0x00033934        0x8 D:\oxygine-sound\dependencies\openalext\lib\android\libopenal.a(alEffect.o)
 .ARM.exidx.text.eaxreverb_SetParamfv
                0x0003393c        0x8 D:\oxygine-sound\dependencies\openalext\lib\android\libopenal.a(alEffect.o)
 .ARM.exidx.text.mod_SetParamf
                0x00033944        0x8 D:\oxygine-sound\dependencies\openalext\lib\android\libopenal.a(alEffect.o)
 .ARM.exidx.text.mod_SetParamfv
                0x0003394c        0x8 D:\oxygine-sound\dependencies\openalext\lib\android\libopenal.a(alEffect.o)
 .ARM.exidx.text.mod_SetParami
                0x00033954        0x8 D:\oxygine-sound\dependencies\openalext\lib\android\libopenal.a(alEffect.o)
 .ARM.exidx.text.mod_SetParamiv
                0x0003395c        0x8 D:\oxygine-sound\dependencies\openalext\lib\android\libopenal.a(alEffect.o)
 .ARM.exidx.text.eaxreverb_GetParamfv
                0x00033964        0x8 D:\oxygine-sound\dependencies\openalext\lib\android\libopenal.a(alEffect.o)
 .ARM.exidx.text.alDeleteEffects
                0x0003396c        0x8 D:\oxygine-sound\dependencies\openalext\lib\android\libopenal.a(alEffect.o)
 .ARM.exidx.text.alIsEffect
                0x00033974        0x8 D:\oxygine-sound\dependencies\openalext\lib\android\libopenal.a(alEffect.o)
 .ARM.exidx.text.alEffecti
                0x0003397c        0x8 D:\oxygine-sound\dependencies\openalext\lib\android\libopenal.a(alEffect.o)
 .ARM.exidx.text.alEffectiv
                0x00033984        0x8 D:\oxygine-sound\dependencies\openalext\lib\android\libopenal.a(alEffect.o)
 .ARM.exidx.text.alEffectf
                0x0003398c        0x8 D:\oxygine-sound\dependencies\openalext\lib\android\libopenal.a(alEffect.o)
 .ARM.exidx.text.alEffectfv
                0x00033994        0x8 D:\oxygine-sound\dependencies\openalext\lib\android\libopenal.a(alEffect.o)
 .ARM.exidx.text.alGetEffecti
                0x0003399c        0x8 D:\oxygine-sound\dependencies\openalext\lib\android\libopenal.a(alEffect.o)
 .ARM.exidx.text.alGetEffectiv
                0x000339a4        0x8 D:\oxygine-sound\dependencies\openalext\lib\android\libopenal.a(alEffect.o)
 .ARM.exidx.text.alGetEffectf
                0x000339ac        0x8 D:\oxygine-sound\dependencies\openalext\lib\android\libopenal.a(alEffect.o)
 .ARM.exidx.text.alGetEffectfv
                0x000339b4        0x8 D:\oxygine-sound\dependencies\openalext\lib\android\libopenal.a(alEffect.o)
 .ARM.exidx.text.InitEffect
                0x000339bc        0x8 D:\oxygine-sound\dependencies\openalext\lib\android\libopenal.a(alEffect.o)
 .ARM.exidx.text.alGenEffects
                0x000339c4        0x8 D:\oxygine-sound\dependencies\openalext\lib\android\libopenal.a(alEffect.o)
 .ARM.exidx.text.ReleaseALEffects
                0x000339cc        0x8 D:\oxygine-sound\dependencies\openalext\lib\android\libopenal.a(alEffect.o)
 .ARM.exidx.text.LoadReverbPreset
                0x000339d4        0x8 D:\oxygine-sound\dependencies\openalext\lib\android\libopenal.a(alEffect.o)
 .ARM.exidx.text.alIsExtensionPresent
                0x000339dc        0x8 D:\oxygine-sound\dependencies\openalext\lib\android\libopenal.a(alExtension.o)
 .ARM.exidx.text.alGetProcAddress
                0x000339e4        0x8 D:\oxygine-sound\dependencies\openalext\lib\android\libopenal.a(alExtension.o)
 .ARM.exidx.text.alGetEnumValue
                0x000339ec        0x8 D:\oxygine-sound\dependencies\openalext\lib\android\libopenal.a(alExtension.o)
 .ARM.exidx.text.null_GetParamfv
                0x000339f4        0x8 D:\oxygine-sound\dependencies\openalext\lib\android\libopenal.a(alFilter.o)
 .ARM.exidx.text.null_GetParamf
                0x000339fc        0x8 D:\oxygine-sound\dependencies\openalext\lib\android\libopenal.a(alFilter.o)
 .ARM.exidx.text.null_GetParamiv
                0x00033a04        0x8 D:\oxygine-sound\dependencies\openalext\lib\android\libopenal.a(alFilter.o)
 .ARM.exidx.text.null_GetParami
                0x00033a0c        0x8 D:\oxygine-sound\dependencies\openalext\lib\android\libopenal.a(alFilter.o)
 .ARM.exidx.text.null_SetParamfv
                0x00033a14        0x8 D:\oxygine-sound\dependencies\openalext\lib\android\libopenal.a(alFilter.o)
 .ARM.exidx.text.null_SetParamf
                0x00033a1c        0x8 D:\oxygine-sound\dependencies\openalext\lib\android\libopenal.a(alFilter.o)
 .ARM.exidx.text.null_SetParamiv
                0x00033a24        0x8 D:\oxygine-sound\dependencies\openalext\lib\android\libopenal.a(alFilter.o)
 .ARM.exidx.text.null_SetParami
                0x00033a2c        0x8 D:\oxygine-sound\dependencies\openalext\lib\android\libopenal.a(alFilter.o)
 .ARM.exidx.text.lp_GetParamf
                0x00033a34        0x8 D:\oxygine-sound\dependencies\openalext\lib\android\libopenal.a(alFilter.o)
 .ARM.exidx.text.lp_GetParamfv
                0x00033a3c        0x8 D:\oxygine-sound\dependencies\openalext\lib\android\libopenal.a(alFilter.o)
 .ARM.exidx.text.lp_GetParamiv
                0x00033a44        0x8 D:\oxygine-sound\dependencies\openalext\lib\android\libopenal.a(alFilter.o)
 .ARM.exidx.text.lp_GetParami
                0x00033a4c        0x8 D:\oxygine-sound\dependencies\openalext\lib\android\libopenal.a(alFilter.o)
 .ARM.exidx.text.lp_SetParamiv
                0x00033a54        0x8 D:\oxygine-sound\dependencies\openalext\lib\android\libopenal.a(alFilter.o)
 .ARM.exidx.text.lp_SetParami
                0x00033a5c        0x8 D:\oxygine-sound\dependencies\openalext\lib\android\libopenal.a(alFilter.o)
 .ARM.exidx.text.lp_SetParamf
                0x00033a64        0x8 D:\oxygine-sound\dependencies\openalext\lib\android\libopenal.a(alFilter.o)
 .ARM.exidx.text.lp_SetParamfv
                0x00033a6c        0x8 D:\oxygine-sound\dependencies\openalext\lib\android\libopenal.a(alFilter.o)
 .ARM.exidx.text.alDeleteFilters
                0x00033a74        0x8 D:\oxygine-sound\dependencies\openalext\lib\android\libopenal.a(alFilter.o)
 .ARM.exidx.text.alGenFilters
                0x00033a7c        0x8 D:\oxygine-sound\dependencies\openalext\lib\android\libopenal.a(alFilter.o)
 .ARM.exidx.text.alIsFilter
                0x00033a84        0x8 D:\oxygine-sound\dependencies\openalext\lib\android\libopenal.a(alFilter.o)
 .ARM.exidx.text.alFilteri
                0x00033a8c        0x8 D:\oxygine-sound\dependencies\openalext\lib\android\libopenal.a(alFilter.o)
 .ARM.exidx.text.alFilteriv
                0x00033a94        0x8 D:\oxygine-sound\dependencies\openalext\lib\android\libopenal.a(alFilter.o)
 .ARM.exidx.text.alFilterf
                0x00033a9c        0x8 D:\oxygine-sound\dependencies\openalext\lib\android\libopenal.a(alFilter.o)
 .ARM.exidx.text.alFilterfv
                0x00033aa4        0x8 D:\oxygine-sound\dependencies\openalext\lib\android\libopenal.a(alFilter.o)
 .ARM.exidx.text.alGetFilteri
                0x00033aac        0x8 D:\oxygine-sound\dependencies\openalext\lib\android\libopenal.a(alFilter.o)
 .ARM.exidx.text.alGetFilteriv
                0x00033ab4        0x8 D:\oxygine-sound\dependencies\openalext\lib\android\libopenal.a(alFilter.o)
 .ARM.exidx.text.alGetFilterf
                0x00033abc        0x8 D:\oxygine-sound\dependencies\openalext\lib\android\libopenal.a(alFilter.o)
 .ARM.exidx.text.alGetFilterfv
                0x00033ac4        0x8 D:\oxygine-sound\dependencies\openalext\lib\android\libopenal.a(alFilter.o)
 .ARM.exidx.text.lpCoeffCalc
                0x00033acc        0x8 D:\oxygine-sound\dependencies\openalext\lib\android\libopenal.a(alFilter.o)
 .ARM.exidx.text.ReleaseALFilters
                0x00033ad4        0x8 D:\oxygine-sound\dependencies\openalext\lib\android\libopenal.a(alFilter.o)
 .ARM.exidx.text.unlikely.aluNormalize
                0x00033adc        0x8 D:\oxygine-sound\dependencies\openalext\lib\android\libopenal.a(alListener.o)
 .ARM.exidx.text.alListenerf
                0x00033ae4        0x8 D:\oxygine-sound\dependencies\openalext\lib\android\libopenal.a(alListener.o)
 .ARM.exidx.text.alListener3f
                0x00033aec        0x8 D:\oxygine-sound\dependencies\openalext\lib\android\libopenal.a(alListener.o)
 .ARM.exidx.text.alListenerfv
                0x00033af4        0x8 D:\oxygine-sound\dependencies\openalext\lib\android\libopenal.a(alListener.o)
 .ARM.exidx.text.alListeneri
                0x00033afc        0x8 D:\oxygine-sound\dependencies\openalext\lib\android\libopenal.a(alListener.o)
 .ARM.exidx.text.alListener3i
                0x00033b04        0x8 D:\oxygine-sound\dependencies\openalext\lib\android\libopenal.a(alListener.o)
 .ARM.exidx.text.alListeneriv
                0x00033b0c        0x8 D:\oxygine-sound\dependencies\openalext\lib\android\libopenal.a(alListener.o)
 .ARM.exidx.text.alGetListenerf
                0x00033b14        0x8 D:\oxygine-sound\dependencies\openalext\lib\android\libopenal.a(alListener.o)
 .ARM.exidx.text.alGetListener3f
                0x00033b1c        0x8 D:\oxygine-sound\dependencies\openalext\lib\android\libopenal.a(alListener.o)
 .ARM.exidx.text.alGetListenerfv
                0x00033b24        0x8 D:\oxygine-sound\dependencies\openalext\lib\android\libopenal.a(alListener.o)
 .ARM.exidx.text.alGetListeneri
                0x00033b2c        0x8 D:\oxygine-sound\dependencies\openalext\lib\android\libopenal.a(alListener.o)
 .ARM.exidx.text.alGetListener3i
                0x00033b34        0x8 D:\oxygine-sound\dependencies\openalext\lib\android\libopenal.a(alListener.o)
 .ARM.exidx.text.alGetListeneriv
                0x00033b3c        0x8 D:\oxygine-sound\dependencies\openalext\lib\android\libopenal.a(alListener.o)
 .ARM.exidx.text.alEnable
                0x00033b44        0x8 D:\oxygine-sound\dependencies\openalext\lib\android\libopenal.a(alState.o)
 .ARM.exidx.text.alDisable
                0x00033b4c        0x8 D:\oxygine-sound\dependencies\openalext\lib\android\libopenal.a(alState.o)
 .ARM.exidx.text.alIsEnabled
                0x00033b54        0x8 D:\oxygine-sound\dependencies\openalext\lib\android\libopenal.a(alState.o)
 .ARM.exidx.text.alGetBoolean
                0x00033b5c        0x8 D:\oxygine-sound\dependencies\openalext\lib\android\libopenal.a(alState.o)
 .ARM.exidx.text.alGetDouble
                0x00033b64        0x8 D:\oxygine-sound\dependencies\openalext\lib\android\libopenal.a(alState.o)
 .ARM.exidx.text.alGetFloat
                0x00033b6c        0x8 D:\oxygine-sound\dependencies\openalext\lib\android\libopenal.a(alState.o)
 .ARM.exidx.text.alGetInteger
                0x00033b74        0x8 D:\oxygine-sound\dependencies\openalext\lib\android\libopenal.a(alState.o)
 .ARM.exidx.text.alGetBooleanv
                0x00033b7c        0x8 D:\oxygine-sound\dependencies\openalext\lib\android\libopenal.a(alState.o)
 .ARM.exidx.text.alGetDoublev
                0x00033b84        0x8 D:\oxygine-sound\dependencies\openalext\lib\android\libopenal.a(alState.o)
 .ARM.exidx.text.alGetFloatv
                0x00033b8c        0x8 D:\oxygine-sound\dependencies\openalext\lib\android\libopenal.a(alState.o)
 .ARM.exidx.text.alGetIntegerv
                0x00033b94        0x8 D:\oxygine-sound\dependencies\openalext\lib\android\libopenal.a(alState.o)
 .ARM.exidx.text.alGetString
                0x00033b9c        0x8 D:\oxygine-sound\dependencies\openalext\lib\android\libopenal.a(alState.o)
 .ARM.exidx.text.alDopplerFactor
                0x00033ba4        0x8 D:\oxygine-sound\dependencies\openalext\lib\android\libopenal.a(alState.o)
 .ARM.exidx.text.alDopplerVelocity
                0x00033bac        0x8 D:\oxygine-sound\dependencies\openalext\lib\android\libopenal.a(alState.o)
 .ARM.exidx.text.alSpeedOfSound
                0x00033bb4        0x8 D:\oxygine-sound\dependencies\openalext\lib\android\libopenal.a(alState.o)
 .ARM.exidx.text.alDistanceModel
                0x00033bbc        0x8 D:\oxygine-sound\dependencies\openalext\lib\android\libopenal.a(alState.o)
 .ARM.exidx.text.alDeferUpdatesSOFT
                0x00033bc4        0x8 D:\oxygine-sound\dependencies\openalext\lib\android\libopenal.a(alState.o)
 .ARM.exidx.text.alProcessUpdatesSOFT
                0x00033bcc        0x8 D:\oxygine-sound\dependencies\openalext\lib\android\libopenal.a(alState.o)
 .ARM.exidx.text.DedicatedDeviceUpdate
                0x00033bd4        0x8 D:\oxygine-sound\dependencies\openalext\lib\android\libopenal.a(alcDedicated.o)
 .ARM.exidx.text.DedicatedProcess
                0x00033bdc        0x8 D:\oxygine-sound\dependencies\openalext\lib\android\libopenal.a(alcDedicated.o)
 .ARM.exidx.text.DedicatedUpdate
                0x00033be4        0x8 D:\oxygine-sound\dependencies\openalext\lib\android\libopenal.a(alcDedicated.o)
 .ARM.exidx.text.DedicatedDestroy
                0x00033bec        0x8 D:\oxygine-sound\dependencies\openalext\lib\android\libopenal.a(alcDedicated.o)
 .ARM.exidx.text.DedicatedCreate
                0x00033bf4        0x8 D:\oxygine-sound\dependencies\openalext\lib\android\libopenal.a(alcDedicated.o)
 .ARM.exidx.text.EchoProcess
                0x00033bfc        0x8 D:\oxygine-sound\dependencies\openalext\lib\android\libopenal.a(alcEcho.o)
 .ARM.exidx.text.EchoUpdate
                0x00033c04        0x8 D:\oxygine-sound\dependencies\openalext\lib\android\libopenal.a(alcEcho.o)
 .ARM.exidx.text.EchoDeviceUpdate
                0x00033c0c        0x8 D:\oxygine-sound\dependencies\openalext\lib\android\libopenal.a(alcEcho.o)
 .ARM.exidx.text.EchoDestroy
                0x00033c14        0x8 D:\oxygine-sound\dependencies\openalext\lib\android\libopenal.a(alcEcho.o)
 .ARM.exidx.text.EchoCreate
                0x00033c1c        0x8 D:\oxygine-sound\dependencies\openalext\lib\android\libopenal.a(alcEcho.o)
 .ARM.exidx.text.ModulatorDeviceUpdate
                0x00033c24        0x8 D:\oxygine-sound\dependencies\openalext\lib\android\libopenal.a(alcModulator.o)
 .ARM.exidx.text.ModulatorProcess
                0x00033c2c        0x8 D:\oxygine-sound\dependencies\openalext\lib\android\libopenal.a(alcModulator.o)
 .ARM.exidx.text.ModulatorUpdate
                0x00033c34        0x8 D:\oxygine-sound\dependencies\openalext\lib\android\libopenal.a(alcModulator.o)
 .ARM.exidx.text.ModulatorDestroy
                0x00033c3c        0x8 D:\oxygine-sound\dependencies\openalext\lib\android\libopenal.a(alcModulator.o)
 .ARM.exidx.text.ModulatorCreate
                0x00033c44        0x8 D:\oxygine-sound\dependencies\openalext\lib\android\libopenal.a(alcModulator.o)
 .ARM.exidx.text.StarterFunc
                0x00033c4c        0x8 D:\oxygine-sound\dependencies\openalext\lib\android\libopenal.a(alcThread.o)
 .ARM.exidx.text.StartThread
                0x00033c54        0x8 D:\oxygine-sound\dependencies\openalext\lib\android\libopenal.a(alcThread.o)
 .ARM.exidx.text.StopThread
                0x00033c5c        0x8 D:\oxygine-sound\dependencies\openalext\lib\android\libopenal.a(alcThread.o)
 .ARM.exidx     0x00033c64       0x10 d:/android/android-ndk-r8e/toolchains/arm-linux-androideabi-4.4.3/prebuilt/windows/bin/../lib/gcc/arm-linux-androideabi/4.4.3\libgcc.a(bpabi.o)
 .ARM.exidx     0x00033c74       0xa0 d:/android/android-ndk-r8e/toolchains/arm-linux-androideabi-4.4.3/prebuilt/windows/bin/../lib/gcc/arm-linux-androideabi/4.4.3\libgcc.a(unwind-arm.o)
 .ARM.exidx     0x00033d14       0x38 d:/android/android-ndk-r8e/toolchains/arm-linux-androideabi-4.4.3/prebuilt/windows/bin/../lib/gcc/arm-linux-androideabi/4.4.3\libgcc.a(pr-support.o)
 .ARM.exidx     0x00033d4c        0x8 d:/android/android-ndk-r8e/toolchains/arm-linux-androideabi-4.4.3/prebuilt/windows/bin/../lib/gcc/arm-linux-androideabi/4.4.3\libgcc.a(_divdi3.o)
 .ARM.exidx     0x00033d54        0x8 d:/android/android-ndk-r8e/toolchains/arm-linux-androideabi-4.4.3/prebuilt/windows/bin/../lib/gcc/arm-linux-androideabi/4.4.3\libgcc.a(_udivdi3.o)
                0x00033d5c                __exidx_end = .

.eh_frame_hdr
 *(.eh_frame_hdr)

.eh_frame
 *(.eh_frame)

.gcc_except_table
 *(.gcc_except_table .gcc_except_table.*)
                0x00033d5c                . = (ALIGN (0x1000) - ((0x1000 - .) & 0xfff))
                0x00034f74                . = (0x1000 DATA_SEGMENT_ALIGN 0x1000)

.eh_frame
 *(.eh_frame)

.gcc_except_table
 *(.gcc_except_table .gcc_except_table.*)

.tdata
 *(.tdata .tdata.* .gnu.linkonce.td.*)

.tbss
 *(.tbss .tbss.* .gnu.linkonce.tb.*)
 *(.tcommon)

.preinit_array
 *(.preinit_array)

.init_array     0x00034f74        0x8
 *(SORT(.init_array.*))
 *(.init_array)
 .init_array    0x00034f74        0x4 D:\oxygine-sound\dependencies\openalext\lib\android\libopenal.a(ALc.o)
 .init_array    0x00034f78        0x4 d:/android/android-ndk-r8e/platforms/android-9/arch-arm/usr/lib/crtend_so.o

.fini_array     0x00034f7c        0xc
 *(.fini_array)
 .fini_array    0x00034f7c        0x4 d:/android/android-ndk-r8e/platforms/android-9/arch-arm/usr/lib/crtbegin_so.o
 .fini_array    0x00034f80        0x4 D:\oxygine-sound\dependencies\openalext\lib\android\libopenal.a(ALc.o)
 .fini_array    0x00034f84        0x4 d:/android/android-ndk-r8e/platforms/android-9/arch-arm/usr/lib/crtend_so.o
 *(SORT(.fini_array.*))

.ctors
 *crtbegin.o(.ctors)
 *crtbegin?.o(.ctors)
 *(EXCLUDE_FILE(*crtend?.o *crtend.o) .ctors)
 *(SORT(.ctors.*))
 *(.ctors)

.dtors
 *crtbegin.o(.dtors)
 *crtbegin?.o(.dtors)
 *(EXCLUDE_FILE(*crtend?.o *crtend.o) .dtors)
 *(SORT(.dtors.*))
 *(.dtors)

.jcr
 *(.jcr)

.data.rel.ro    0x00034f88      0xd74
 *(.data.rel.ro.local* .gnu.linkonce.d.rel.ro.local.*)
 .data.rel.ro.local
                0x00034f88      0x170 D:\oxygine-sound\dependencies\openalext\lib\android\libopenal.a(ALc.o)
 .data.rel.ro.local
                0x000350f8       0x2c D:\oxygine-sound\dependencies\openalext\lib\android\libopenal.a(opensl.o)
 .data.rel.ro.local
                0x00035124       0x2c D:\oxygine-sound\dependencies\openalext\lib\android\libopenal.a(null.o)
 .data.rel.ro.local
                0x00035150       0x2c D:\oxygine-sound\dependencies\openalext\lib\android\libopenal.a(loopback.o)
 .data.rel.ro.local
                0x0003517c      0x728 D:\oxygine-sound\dependencies\openalext\lib\android\libopenal.a(alExtension.o)
                0x00035834                EffectList
 *(.data.rel.ro* .gnu.linkonce.d.rel.ro.*)
 .data.rel.ro   0x000358a4      0x458 D:\oxygine-sound\dependencies\openalext\lib\android\libopenal.a(ALc.o)

.dynamic        0x00035cfc       0xf0
 *(.dynamic)
 .dynamic       0x00035cfc       0xf0 d:/android/android-ndk-r8e/platforms/android-9/arch-arm/usr/lib/crtbegin_so.o
                0x00035cfc                _DYNAMIC

.got            0x00035dec      0x214
 *(.got.plt)
 .got.plt       0x00035dec      0x13c d:/android/android-ndk-r8e/platforms/android-9/arch-arm/usr/lib/crtbegin_so.o
                0x00035dec                _GLOBAL_OFFSET_TABLE_
 *(.got)
 .got           0x00035f28       0xd8 d:/android/android-ndk-r8e/platforms/android-9/arch-arm/usr/lib/crtbegin_so.o
                0x00036000                . = (. DATA_SEGMENT_RELRO_END 0x0)

.data           0x00036000      0x108
                0x00036000                __data_start = .
 *(.data .data.* .gnu.linkonce.d.*)
 .data          0x00036000        0x4 d:/android/android-ndk-r8e/platforms/android-9/arch-arm/usr/lib/crtbegin_so.o
                0x00036000                __dso_handle
 .data          0x00036004        0x4 D:\oxygine-sound\dependencies\openalext\lib\android\libopenal.a(alSource.o)
                0x00036004                DefaultResampler
 .data          0x00036008        0x4 D:\oxygine-sound\dependencies\openalext\lib\android\libopenal.a(ALc.o)
                0x00036008                LogLevel
 .data.rel      0x0003600c       0xf0 D:\oxygine-sound\dependencies\openalext\lib\android\libopenal.a(ALc.o)
 .data          0x000360fc        0x4 D:\oxygine-sound\dependencies\openalext\lib\android\libopenal.a(alcReverb.o)
                0x000360fc                ReverbBoost
 .data          0x00036100        0x8 D:\oxygine-sound\dependencies\openalext\lib\android\libopenal.a(ALu.o)
                0x00036100                ZScale
                0x00036104                ConeScale

.data1
 *(.data1)
                0x00036108                _edata = .
                0x00036108                PROVIDE (edata, .)
                0x00036108                __bss_start = .
                0x00036108                __bss_start__ = .

.bss            0x00036108      0x5ac
 *(.dynbss)
 .dynbss        0x00000000        0x0 d:/android/android-ndk-r8e/platforms/android-9/arch-arm/usr/lib/crtbegin_so.o
 *(.bss .bss.* .gnu.linkonce.b.*)
 .bss           0x00036108        0x1 D:\oxygine-sound\dependencies\openalext\lib\android\libopenal.a(alError.o)
                0x00036108                TrapALError
 *fill*         0x00036109        0x3 00
 .bss           0x0003610c       0x1c D:\oxygine-sound\dependencies\openalext\lib\android\libopenal.a(alThunk.o)
 .bss           0x00036128      0x164 D:\oxygine-sound\dependencies\openalext\lib\android\libopenal.a(ALc.o)
 .bss           0x0003628c      0x408 D:\oxygine-sound\dependencies\openalext\lib\android\libopenal.a(alcConfig.o)
 .bss           0x00036694        0x1 D:\oxygine-sound\dependencies\openalext\lib\android\libopenal.a(alcReverb.o)
                0x00036694                EmulateEAXReverb
 *fill*         0x00036695        0x3 00
 .bss           0x00036698        0x4 D:\oxygine-sound\dependencies\openalext\lib\android\libopenal.a(helpers.o)
 .bss           0x0003669c        0x8 D:\oxygine-sound\dependencies\openalext\lib\android\libopenal.a(hrtf.o)
 *(COMMON)
 COMMON         0x000366a4        0x8 D:\oxygine-sound\dependencies\openalext\lib\android\libopenal.a(ALc.o)
                0x000366a4                LogFile
                0x000366a8                RTPrioLevel
 COMMON         0x000366ac        0x5 D:\oxygine-sound\dependencies\openalext\lib\android\libopenal.a(alEffect.o)
                0x000366ac                DisabledEffects
                0x000366b4                . = ALIGN ((. != 0x0)?0x4:0x1)
 *fill*         0x000366b1        0x3 00
                0x000366b4                _bss_end__ = .
                0x000366b4                __bss_end__ = .
                0x000366b4                . = ALIGN (0x4)
                0x000366b4                . = ALIGN (0x4)
                0x000366b4                __end__ = .
                0x000366b4                _end = .
                0x000366b4                PROVIDE (end, .)
                0x000366b4                . = DATA_SEGMENT_END (.)

.stab
 *(.stab)

.stabstr
 *(.stabstr)

.stab.excl
 *(.stab.excl)

.stab.exclstr
 *(.stab.exclstr)

.stab.index
 *(.stab.index)

.stab.indexstr
 *(.stab.indexstr)

.comment        0x00000000       0xb5
 *(.comment)
 .comment       0x00000000       0x25 d:/android/android-ndk-r8e/platforms/android-9/arch-arm/usr/lib/crtbegin_so.o
                                 0x26 (size before relaxing)
 .comment       0x00000025       0x12 release\openalext_platform.os
 .comment       0x00000037       0x12 release\openalext.os
 .comment       0x00000049       0x12 release\openalext_register.os
 .comment       0x00000000       0x26 D:\oxygine-sound\dependencies\openalext\lib\android\libopenal.a(alBuffer.o)
 .comment       0x00000000       0x26 D:\oxygine-sound\dependencies\openalext\lib\android\libopenal.a(alError.o)
 .comment       0x00000000       0x26 D:\oxygine-sound\dependencies\openalext\lib\android\libopenal.a(alSource.o)
 .comment       0x00000000       0x26 D:\oxygine-sound\dependencies\openalext\lib\android\libopenal.a(alThunk.o)
 .comment       0x00000000       0x26 D:\oxygine-sound\dependencies\openalext\lib\android\libopenal.a(ALc.o)
 .comment       0x00000000       0x26 D:\oxygine-sound\dependencies\openalext\lib\android\libopenal.a(alcConfig.o)
 .comment       0x00000000       0x26 D:\oxygine-sound\dependencies\openalext\lib\android\libopenal.a(alcReverb.o)
 .comment       0x00000000       0x26 D:\oxygine-sound\dependencies\openalext\lib\android\libopenal.a(ALu.o)
 .comment       0x00000000       0x26 D:\oxygine-sound\dependencies\openalext\lib\android\libopenal.a(bs2b.o)
 .comment       0x00000000       0x26 D:\oxygine-sound\dependencies\openalext\lib\android\libopenal.a(helpers.o)
 .comment       0x00000000       0x26 D:\oxygine-sound\dependencies\openalext\lib\android\libopenal.a(hrtf.o)
 .comment       0x00000000       0x26 D:\oxygine-sound\dependencies\openalext\lib\android\libopenal.a(mixer.o)
 .comment       0x00000000       0x26 D:\oxygine-sound\dependencies\openalext\lib\android\libopenal.a(panning.o)
 .comment       0x00000000       0x26 D:\oxygine-sound\dependencies\openalext\lib\android\libopenal.a(opensl.o)
 .comment       0x00000000       0x26 D:\oxygine-sound\dependencies\openalext\lib\android\libopenal.a(null.o)
 .comment       0x00000000       0x26 D:\oxygine-sound\dependencies\openalext\lib\android\libopenal.a(loopback.o)
 .comment       0x00000000       0x26 D:\oxygine-sound\dependencies\openalext\lib\android\libopenal.a(alAuxEffectSlot.o)
 .comment       0x00000000       0x26 D:\oxygine-sound\dependencies\openalext\lib\android\libopenal.a(alEffect.o)
 .comment       0x00000000       0x26 D:\oxygine-sound\dependencies\openalext\lib\android\libopenal.a(alExtension.o)
 .comment       0x00000000       0x26 D:\oxygine-sound\dependencies\openalext\lib\android\libopenal.a(alFilter.o)
 .comment       0x00000000       0x26 D:\oxygine-sound\dependencies\openalext\lib\android\libopenal.a(alListener.o)
 .comment       0x00000000       0x26 D:\oxygine-sound\dependencies\openalext\lib\android\libopenal.a(alState.o)
 .comment       0x00000000       0x26 D:\oxygine-sound\dependencies\openalext\lib\android\libopenal.a(alcDedicated.o)
 .comment       0x00000000       0x26 D:\oxygine-sound\dependencies\openalext\lib\android\libopenal.a(alcEcho.o)
 .comment       0x00000000       0x26 D:\oxygine-sound\dependencies\openalext\lib\android\libopenal.a(alcModulator.o)
 .comment       0x00000000       0x26 D:\oxygine-sound\dependencies\openalext\lib\android\libopenal.a(alcThread.o)
 .comment       0x0000005b       0x12 d:/android/android-ndk-r8e/toolchains/arm-linux-androideabi-4.4.3/prebuilt/windows/bin/../lib/gcc/arm-linux-androideabi/4.4.3\libgcc.a(bpabi.o)
 .comment       0x0000006d       0x12 d:/android/android-ndk-r8e/toolchains/arm-linux-androideabi-4.4.3/prebuilt/windows/bin/../lib/gcc/arm-linux-androideabi/4.4.3\libgcc.a(unwind-arm.o)
 .comment       0x0000007f       0x12 d:/android/android-ndk-r8e/toolchains/arm-linux-androideabi-4.4.3/prebuilt/windows/bin/../lib/gcc/arm-linux-androideabi/4.4.3\libgcc.a(pr-support.o)
 .comment       0x00000091       0x12 d:/android/android-ndk-r8e/toolchains/arm-linux-androideabi-4.4.3/prebuilt/windows/bin/../lib/gcc/arm-linux-androideabi/4.4.3\libgcc.a(_divdi3.o)
 .comment       0x000000a3       0x12 d:/android/android-ndk-r8e/toolchains/arm-linux-androideabi-4.4.3/prebuilt/windows/bin/../lib/gcc/arm-linux-androideabi/4.4.3\libgcc.a(_udivdi3.o)

.debug
 *(.debug)

.line
 *(.line)

.debug_srcinfo
 *(.debug_srcinfo)

.debug_sfnames
 *(.debug_sfnames)

.debug_aranges  0x00000000     0x1118
 *(.debug_aranges)
 .debug_aranges
                0x00000000      0x200 D:\oxygine-sound\dependencies\openalext\lib\android\libopenal.a(alBuffer.o)
 .debug_aranges
                0x00000200       0x28 D:\oxygine-sound\dependencies\openalext\lib\android\libopenal.a(alError.o)
 .debug_aranges
                0x00000228      0x110 D:\oxygine-sound\dependencies\openalext\lib\android\libopenal.a(alSource.o)
 .debug_aranges
                0x00000338       0x38 D:\oxygine-sound\dependencies\openalext\lib\android\libopenal.a(alThunk.o)
 .debug_aranges
                0x00000370      0x1b0 D:\oxygine-sound\dependencies\openalext\lib\android\libopenal.a(ALc.o)
 .debug_aranges
                0x00000520       0x68 D:\oxygine-sound\dependencies\openalext\lib\android\libopenal.a(alcConfig.o)
 .debug_aranges
                0x00000588       0x80 D:\oxygine-sound\dependencies\openalext\lib\android\libopenal.a(alcReverb.o)
 .debug_aranges
                0x00000608       0x58 D:\oxygine-sound\dependencies\openalext\lib\android\libopenal.a(ALu.o)
 .debug_aranges
                0x00000660       0x50 D:\oxygine-sound\dependencies\openalext\lib\android\libopenal.a(bs2b.o)
 .debug_aranges
                0x000006b0       0xc8 D:\oxygine-sound\dependencies\openalext\lib\android\libopenal.a(helpers.o)
 .debug_aranges
                0x00000778       0x50 D:\oxygine-sound\dependencies\openalext\lib\android\libopenal.a(hrtf.o)
 .debug_aranges
                0x000007c8       0x98 D:\oxygine-sound\dependencies\openalext\lib\android\libopenal.a(mixer.o)
 .debug_aranges
                0x00000860       0x28 D:\oxygine-sound\dependencies\openalext\lib\android\libopenal.a(panning.o)
 .debug_aranges
                0x00000888       0x68 D:\oxygine-sound\dependencies\openalext\lib\android\libopenal.a(opensl.o)
 .debug_aranges
                0x000008f0       0x60 D:\oxygine-sound\dependencies\openalext\lib\android\libopenal.a(null.o)
 .debug_aranges
                0x00000950       0x58 D:\oxygine-sound\dependencies\openalext\lib\android\libopenal.a(loopback.o)
 .debug_aranges
                0x000009a8       0xb8 D:\oxygine-sound\dependencies\openalext\lib\android\libopenal.a(alAuxEffectSlot.o)
 .debug_aranges
                0x00000a60      0x210 D:\oxygine-sound\dependencies\openalext\lib\android\libopenal.a(alEffect.o)
 .debug_aranges
                0x00000c70       0x30 D:\oxygine-sound\dependencies\openalext\lib\android\libopenal.a(alExtension.o)
 .debug_aranges
                0x00000ca0      0x100 D:\oxygine-sound\dependencies\openalext\lib\android\libopenal.a(alFilter.o)
 .debug_aranges
                0x00000da0       0x80 D:\oxygine-sound\dependencies\openalext\lib\android\libopenal.a(alListener.o)
 .debug_aranges
                0x00000e20       0xa8 D:\oxygine-sound\dependencies\openalext\lib\android\libopenal.a(alState.o)
 .debug_aranges
                0x00000ec8       0x40 D:\oxygine-sound\dependencies\openalext\lib\android\libopenal.a(alcDedicated.o)
 .debug_aranges
                0x00000f08       0x40 D:\oxygine-sound\dependencies\openalext\lib\android\libopenal.a(alcEcho.o)
 .debug_aranges
                0x00000f48       0x40 D:\oxygine-sound\dependencies\openalext\lib\android\libopenal.a(alcModulator.o)
 .debug_aranges
                0x00000f88       0x30 D:\oxygine-sound\dependencies\openalext\lib\android\libopenal.a(alcThread.o)
 .debug_aranges
                0x00000fb8       0x20 d:/android/android-ndk-r8e/toolchains/arm-linux-androideabi-4.4.3/prebuilt/windows/bin/../lib/gcc/arm-linux-androideabi/4.4.3\libgcc.a(_udivsi3.o)
 .debug_aranges
                0x00000fd8       0x20 d:/android/android-ndk-r8e/toolchains/arm-linux-androideabi-4.4.3/prebuilt/windows/bin/../lib/gcc/arm-linux-androideabi/4.4.3\libgcc.a(_divsi3.o)
 .debug_aranges
                0x00000ff8       0x20 d:/android/android-ndk-r8e/toolchains/arm-linux-androideabi-4.4.3/prebuilt/windows/bin/../lib/gcc/arm-linux-androideabi/4.4.3\libgcc.a(_aeabi_ldivmod.o)
 .debug_aranges
                0x00001018       0x20 d:/android/android-ndk-r8e/toolchains/arm-linux-androideabi-4.4.3/prebuilt/windows/bin/../lib/gcc/arm-linux-androideabi/4.4.3\libgcc.a(_aeabi_uldivmod.o)
 .debug_aranges
                0x00001038       0x20 d:/android/android-ndk-r8e/toolchains/arm-linux-androideabi-4.4.3/prebuilt/windows/bin/../lib/gcc/arm-linux-androideabi/4.4.3\libgcc.a(_dvmd_lnx.o)
 .debug_aranges
                0x00001058       0x20 d:/android/android-ndk-r8e/toolchains/arm-linux-androideabi-4.4.3/prebuilt/windows/bin/../lib/gcc/arm-linux-androideabi/4.4.3\libgcc.a(bpabi.o)
 .debug_aranges
                0x00001078       0x20 d:/android/android-ndk-r8e/toolchains/arm-linux-androideabi-4.4.3/prebuilt/windows/bin/../lib/gcc/arm-linux-androideabi/4.4.3\libgcc.a(unwind-arm.o)
 .debug_aranges
                0x00001098       0x20 d:/android/android-ndk-r8e/toolchains/arm-linux-androideabi-4.4.3/prebuilt/windows/bin/../lib/gcc/arm-linux-androideabi/4.4.3\libgcc.a(libunwind.o)
 .debug_aranges
                0x000010b8       0x20 d:/android/android-ndk-r8e/toolchains/arm-linux-androideabi-4.4.3/prebuilt/windows/bin/../lib/gcc/arm-linux-androideabi/4.4.3\libgcc.a(pr-support.o)
 .debug_aranges
                0x000010d8       0x20 d:/android/android-ndk-r8e/toolchains/arm-linux-androideabi-4.4.3/prebuilt/windows/bin/../lib/gcc/arm-linux-androideabi/4.4.3\libgcc.a(_divdi3.o)
 .debug_aranges
                0x000010f8       0x20 d:/android/android-ndk-r8e/toolchains/arm-linux-androideabi-4.4.3/prebuilt/windows/bin/../lib/gcc/arm-linux-androideabi/4.4.3\libgcc.a(_udivdi3.o)

.debug_pubnames
                0x00000000     0x2e48
 *(.debug_pubnames)
 .debug_pubnames
                0x00000000      0x61a D:\oxygine-sound\dependencies\openalext\lib\android\libopenal.a(alBuffer.o)
 .debug_pubnames
                0x0000061a       0x4f D:\oxygine-sound\dependencies\openalext\lib\android\libopenal.a(alError.o)
 .debug_pubnames
                0x00000669      0x28d D:\oxygine-sound\dependencies\openalext\lib\android\libopenal.a(alSource.o)
 .debug_pubnames
                0x000008f6       0x92 D:\oxygine-sound\dependencies\openalext\lib\android\libopenal.a(alThunk.o)
 .debug_pubnames
                0x00000988      0x753 D:\oxygine-sound\dependencies\openalext\lib\android\libopenal.a(ALc.o)
 .debug_pubnames
                0x000010db      0x10f D:\oxygine-sound\dependencies\openalext\lib\android\libopenal.a(alcConfig.o)
 .debug_pubnames
                0x000011ea      0x227 D:\oxygine-sound\dependencies\openalext\lib\android\libopenal.a(alcReverb.o)
 .debug_pubnames
                0x00001411       0xd4 D:\oxygine-sound\dependencies\openalext\lib\android\libopenal.a(ALu.o)
 .debug_pubnames
                0x000014e5       0x8a D:\oxygine-sound\dependencies\openalext\lib\android\libopenal.a(bs2b.o)
 .debug_pubnames
                0x0000156f      0x19f D:\oxygine-sound\dependencies\openalext\lib\android\libopenal.a(helpers.o)
 .debug_pubnames
                0x0000170e       0xf7 D:\oxygine-sound\dependencies\openalext\lib\android\libopenal.a(hrtf.o)
 .debug_pubnames
                0x00001805      0x155 D:\oxygine-sound\dependencies\openalext\lib\android\libopenal.a(mixer.o)
 .debug_pubnames
                0x0000195a       0x47 D:\oxygine-sound\dependencies\openalext\lib\android\libopenal.a(panning.o)
 .debug_pubnames
                0x000019a1      0x123 D:\oxygine-sound\dependencies\openalext\lib\android\libopenal.a(opensl.o)
 .debug_pubnames
                0x00001ac4       0xfb D:\oxygine-sound\dependencies\openalext\lib\android\libopenal.a(null.o)
 .debug_pubnames
                0x00001bbf      0x103 D:\oxygine-sound\dependencies\openalext\lib\android\libopenal.a(loopback.o)
 .debug_pubnames
                0x00001cc2      0x21b D:\oxygine-sound\dependencies\openalext\lib\android\libopenal.a(alAuxEffectSlot.o)
 .debug_pubnames
                0x00001edd      0x529 D:\oxygine-sound\dependencies\openalext\lib\android\libopenal.a(alEffect.o)
 .debug_pubnames
                0x00002406       0x81 D:\oxygine-sound\dependencies\openalext\lib\android\libopenal.a(alExtension.o)
 .debug_pubnames
                0x00002487      0x222 D:\oxygine-sound\dependencies\openalext\lib\android\libopenal.a(alFilter.o)
 .debug_pubnames
                0x000026a9      0x10c D:\oxygine-sound\dependencies\openalext\lib\android\libopenal.a(alListener.o)
 .debug_pubnames
                0x000027b5      0x203 D:\oxygine-sound\dependencies\openalext\lib\android\libopenal.a(alState.o)
 .debug_pubnames
                0x000029b8       0x8d D:\oxygine-sound\dependencies\openalext\lib\android\libopenal.a(alcDedicated.o)
 .debug_pubnames
                0x00002a45       0x74 D:\oxygine-sound\dependencies\openalext\lib\android\libopenal.a(alcEcho.o)
 .debug_pubnames
                0x00002ab9       0x8d D:\oxygine-sound\dependencies\openalext\lib\android\libopenal.a(alcModulator.o)
 .debug_pubnames
                0x00002b46       0x50 D:\oxygine-sound\dependencies\openalext\lib\android\libopenal.a(alcThread.o)
 .debug_pubnames
                0x00002b96       0x45 d:/android/android-ndk-r8e/toolchains/arm-linux-androideabi-4.4.3/prebuilt/windows/bin/../lib/gcc/arm-linux-androideabi/4.4.3\libgcc.a(bpabi.o)
 .debug_pubnames
                0x00002bdb      0x177 d:/android/android-ndk-r8e/toolchains/arm-linux-androideabi-4.4.3/prebuilt/windows/bin/../lib/gcc/arm-linux-androideabi/4.4.3\libgcc.a(unwind-arm.o)
 .debug_pubnames
                0x00002d52       0xb7 d:/android/android-ndk-r8e/toolchains/arm-linux-androideabi-4.4.3/prebuilt/windows/bin/../lib/gcc/arm-linux-androideabi/4.4.3\libgcc.a(pr-support.o)
 .debug_pubnames
                0x00002e09       0x1f d:/android/android-ndk-r8e/toolchains/arm-linux-androideabi-4.4.3/prebuilt/windows/bin/../lib/gcc/arm-linux-androideabi/4.4.3\libgcc.a(_divdi3.o)
 .debug_pubnames
                0x00002e28       0x20 d:/android/android-ndk-r8e/toolchains/arm-linux-androideabi-4.4.3/prebuilt/windows/bin/../lib/gcc/arm-linux-androideabi/4.4.3\libgcc.a(_udivdi3.o)

.debug_info     0x00000000    0x3b4f2
 *(.debug_info .gnu.linkonce.wi.*)
 .debug_info    0x00000000     0xcc9d D:\oxygine-sound\dependencies\openalext\lib\android\libopenal.a(alBuffer.o)
 .debug_info    0x0000cc9d      0xb7d D:\oxygine-sound\dependencies\openalext\lib\android\libopenal.a(alError.o)
 .debug_info    0x0000d81a     0x2cab D:\oxygine-sound\dependencies\openalext\lib\android\libopenal.a(alSource.o)
 .debug_info    0x000104c5      0x373 D:\oxygine-sound\dependencies\openalext\lib\android\libopenal.a(alThunk.o)
 .debug_info    0x00010838     0x4137 D:\oxygine-sound\dependencies\openalext\lib\android\libopenal.a(ALc.o)
 .debug_info    0x0001496f      0x991 D:\oxygine-sound\dependencies\openalext\lib\android\libopenal.a(alcConfig.o)
 .debug_info    0x00015300     0x3691 D:\oxygine-sound\dependencies\openalext\lib\android\libopenal.a(alcReverb.o)
 .debug_info    0x00018991     0x572a D:\oxygine-sound\dependencies\openalext\lib\android\libopenal.a(ALu.o)
 .debug_info    0x0001e0bb      0x2fb D:\oxygine-sound\dependencies\openalext\lib\android\libopenal.a(bs2b.o)
 .debug_info    0x0001e3b6      0xee2 D:\oxygine-sound\dependencies\openalext\lib\android\libopenal.a(helpers.o)
 .debug_info    0x0001f298     0x225c D:\oxygine-sound\dependencies\openalext\lib\android\libopenal.a(hrtf.o)
 .debug_info    0x000214f4     0x38de D:\oxygine-sound\dependencies\openalext\lib\android\libopenal.a(mixer.o)
 .debug_info    0x00024dd2      0xe56 D:\oxygine-sound\dependencies\openalext\lib\android\libopenal.a(panning.o)
 .debug_info    0x00025c28     0x1a8c D:\oxygine-sound\dependencies\openalext\lib\android\libopenal.a(opensl.o)
 .debug_info    0x000276b4      0xd1f D:\oxygine-sound\dependencies\openalext\lib\android\libopenal.a(null.o)
 .debug_info    0x000283d3      0xbc3 D:\oxygine-sound\dependencies\openalext\lib\android\libopenal.a(loopback.o)
 .debug_info    0x00028f96     0x2059 D:\oxygine-sound\dependencies\openalext\lib\android\libopenal.a(alAuxEffectSlot.o)
 .debug_info    0x0002afef     0x2c00 D:\oxygine-sound\dependencies\openalext\lib\android\libopenal.a(alEffect.o)
 .debug_info    0x0002dbef     0x1a23 D:\oxygine-sound\dependencies\openalext\lib\android\libopenal.a(alExtension.o)
 .debug_info    0x0002f612     0x1855 D:\oxygine-sound\dependencies\openalext\lib\android\libopenal.a(alFilter.o)
 .debug_info    0x00030e67     0x1932 D:\oxygine-sound\dependencies\openalext\lib\android\libopenal.a(alListener.o)
 .debug_info    0x00032799     0x1f90 D:\oxygine-sound\dependencies\openalext\lib\android\libopenal.a(alState.o)
 .debug_info    0x00034729     0x11cc D:\oxygine-sound\dependencies\openalext\lib\android\libopenal.a(alcDedicated.o)
 .debug_info    0x000358f5     0x1668 D:\oxygine-sound\dependencies\openalext\lib\android\libopenal.a(alcEcho.o)
 .debug_info    0x00036f5d     0x1739 D:\oxygine-sound\dependencies\openalext\lib\android\libopenal.a(alcModulator.o)
 .debug_info    0x00038696      0x24b D:\oxygine-sound\dependencies\openalext\lib\android\libopenal.a(alcThread.o)
 .debug_info    0x000388e1       0xd9 d:/android/android-ndk-r8e/toolchains/arm-linux-androideabi-4.4.3/prebuilt/windows/bin/../lib/gcc/arm-linux-androideabi/4.4.3\libgcc.a(_udivsi3.o)
 .debug_info    0x000389ba       0xd9 d:/android/android-ndk-r8e/toolchains/arm-linux-androideabi-4.4.3/prebuilt/windows/bin/../lib/gcc/arm-linux-androideabi/4.4.3\libgcc.a(_divsi3.o)
 .debug_info    0x00038a93       0xd3 d:/android/android-ndk-r8e/toolchains/arm-linux-androideabi-4.4.3/prebuilt/windows/bin/../lib/gcc/arm-linux-androideabi/4.4.3\libgcc.a(_aeabi_ldivmod.o)
 .debug_info    0x00038b66       0xd3 d:/android/android-ndk-r8e/toolchains/arm-linux-androideabi-4.4.3/prebuilt/windows/bin/../lib/gcc/arm-linux-androideabi/4.4.3\libgcc.a(_aeabi_uldivmod.o)
 .debug_info    0x00038c39       0xd9 d:/android/android-ndk-r8e/toolchains/arm-linux-androideabi-4.4.3/prebuilt/windows/bin/../lib/gcc/arm-linux-androideabi/4.4.3\libgcc.a(_dvmd_lnx.o)
 .debug_info    0x00038d12       0xde d:/android/android-ndk-r8e/toolchains/arm-linux-androideabi-4.4.3/prebuilt/windows/bin/../lib/gcc/arm-linux-androideabi/4.4.3\libgcc.a(bpabi.o)
 .debug_info    0x00038df0     0x1424 d:/android/android-ndk-r8e/toolchains/arm-linux-androideabi-4.4.3/prebuilt/windows/bin/../lib/gcc/arm-linux-androideabi/4.4.3\libgcc.a(unwind-arm.o)
 .debug_info    0x0003a214       0xd7 d:/android/android-ndk-r8e/toolchains/arm-linux-androideabi-4.4.3/prebuilt/windows/bin/../lib/gcc/arm-linux-androideabi/4.4.3\libgcc.a(libunwind.o)
 .debug_info    0x0003a2eb      0x636 d:/android/android-ndk-r8e/toolchains/arm-linux-androideabi-4.4.3/prebuilt/windows/bin/../lib/gcc/arm-linux-androideabi/4.4.3\libgcc.a(pr-support.o)
 .debug_info    0x0003a921      0x606 d:/android/android-ndk-r8e/toolchains/arm-linux-androideabi-4.4.3/prebuilt/windows/bin/../lib/gcc/arm-linux-androideabi/4.4.3\libgcc.a(_divdi3.o)
 .debug_info    0x0003af27      0x5cb d:/android/android-ndk-r8e/toolchains/arm-linux-androideabi-4.4.3/prebuilt/windows/bin/../lib/gcc/arm-linux-androideabi/4.4.3\libgcc.a(_udivdi3.o)

.debug_abbrev   0x00000000     0x5ffb
 *(.debug_abbrev)
 .debug_abbrev  0x00000000      0x497 D:\oxygine-sound\dependencies\openalext\lib\android\libopenal.a(alBuffer.o)
 .debug_abbrev  0x00000497      0x273 D:\oxygine-sound\dependencies\openalext\lib\android\libopenal.a(alError.o)
 .debug_abbrev  0x0000070a      0x43c D:\oxygine-sound\dependencies\openalext\lib\android\libopenal.a(alSource.o)
 .debug_abbrev  0x00000b46      0x1dd D:\oxygine-sound\dependencies\openalext\lib\android\libopenal.a(alThunk.o)
 .debug_abbrev  0x00000d23      0x531 D:\oxygine-sound\dependencies\openalext\lib\android\libopenal.a(ALc.o)
 .debug_abbrev  0x00001254      0x2ac D:\oxygine-sound\dependencies\openalext\lib\android\libopenal.a(alcConfig.o)
 .debug_abbrev  0x00001500      0x491 D:\oxygine-sound\dependencies\openalext\lib\android\libopenal.a(alcReverb.o)
 .debug_abbrev  0x00001991      0x492 D:\oxygine-sound\dependencies\openalext\lib\android\libopenal.a(ALu.o)
 .debug_abbrev  0x00001e23       0xfb D:\oxygine-sound\dependencies\openalext\lib\android\libopenal.a(bs2b.o)
 .debug_abbrev  0x00001f1e      0x3f4 D:\oxygine-sound\dependencies\openalext\lib\android\libopenal.a(helpers.o)
 .debug_abbrev  0x00002312      0x469 D:\oxygine-sound\dependencies\openalext\lib\android\libopenal.a(hrtf.o)
 .debug_abbrev  0x0000277b      0x45a D:\oxygine-sound\dependencies\openalext\lib\android\libopenal.a(mixer.o)
 .debug_abbrev  0x00002bd5      0x336 D:\oxygine-sound\dependencies\openalext\lib\android\libopenal.a(panning.o)
 .debug_abbrev  0x00002f0b      0x38b D:\oxygine-sound\dependencies\openalext\lib\android\libopenal.a(opensl.o)
 .debug_abbrev  0x00003296      0x26a D:\oxygine-sound\dependencies\openalext\lib\android\libopenal.a(null.o)
 .debug_abbrev  0x00003500      0x263 D:\oxygine-sound\dependencies\openalext\lib\android\libopenal.a(loopback.o)
 .debug_abbrev  0x00003763      0x428 D:\oxygine-sound\dependencies\openalext\lib\android\libopenal.a(alAuxEffectSlot.o)
 .debug_abbrev  0x00003b8b      0x3b6 D:\oxygine-sound\dependencies\openalext\lib\android\libopenal.a(alEffect.o)
 .debug_abbrev  0x00003f41      0x2af D:\oxygine-sound\dependencies\openalext\lib\android\libopenal.a(alExtension.o)
 .debug_abbrev  0x000041f0      0x342 D:\oxygine-sound\dependencies\openalext\lib\android\libopenal.a(alFilter.o)
 .debug_abbrev  0x00004532      0x320 D:\oxygine-sound\dependencies\openalext\lib\android\libopenal.a(alListener.o)
 .debug_abbrev  0x00004852      0x369 D:\oxygine-sound\dependencies\openalext\lib\android\libopenal.a(alState.o)
 .debug_abbrev  0x00004bbb      0x278 D:\oxygine-sound\dependencies\openalext\lib\android\libopenal.a(alcDedicated.o)
 .debug_abbrev  0x00004e33      0x34e D:\oxygine-sound\dependencies\openalext\lib\android\libopenal.a(alcEcho.o)
 .debug_abbrev  0x00005181      0x380 D:\oxygine-sound\dependencies\openalext\lib\android\libopenal.a(alcModulator.o)
 .debug_abbrev  0x00005501      0x145 D:\oxygine-sound\dependencies\openalext\lib\android\libopenal.a(alcThread.o)
 .debug_abbrev  0x00005646       0x14 d:/android/android-ndk-r8e/toolchains/arm-linux-androideabi-4.4.3/prebuilt/windows/bin/../lib/gcc/arm-linux-androideabi/4.4.3\libgcc.a(_udivsi3.o)
 .debug_abbrev  0x0000565a       0x14 d:/android/android-ndk-r8e/toolchains/arm-linux-androideabi-4.4.3/prebuilt/windows/bin/../lib/gcc/arm-linux-androideabi/4.4.3\libgcc.a(_divsi3.o)
 .debug_abbrev  0x0000566e       0x14 d:/android/android-ndk-r8e/toolchains/arm-linux-androideabi-4.4.3/prebuilt/windows/bin/../lib/gcc/arm-linux-androideabi/4.4.3\libgcc.a(_aeabi_ldivmod.o)
 .debug_abbrev  0x00005682       0x14 d:/android/android-ndk-r8e/toolchains/arm-linux-androideabi-4.4.3/prebuilt/windows/bin/../lib/gcc/arm-linux-androideabi/4.4.3\libgcc.a(_aeabi_uldivmod.o)
 .debug_abbrev  0x00005696       0x14 d:/android/android-ndk-r8e/toolchains/arm-linux-androideabi-4.4.3/prebuilt/windows/bin/../lib/gcc/arm-linux-androideabi/4.4.3\libgcc.a(_dvmd_lnx.o)
 .debug_abbrev  0x000056aa       0x6a d:/android/android-ndk-r8e/toolchains/arm-linux-androideabi-4.4.3/prebuilt/windows/bin/../lib/gcc/arm-linux-androideabi/4.4.3\libgcc.a(bpabi.o)
 .debug_abbrev  0x00005714      0x3bb d:/android/android-ndk-r8e/toolchains/arm-linux-androideabi-4.4.3/prebuilt/windows/bin/../lib/gcc/arm-linux-androideabi/4.4.3\libgcc.a(unwind-arm.o)
 .debug_abbrev  0x00005acf       0x14 d:/android/android-ndk-r8e/toolchains/arm-linux-androideabi-4.4.3/prebuilt/windows/bin/../lib/gcc/arm-linux-androideabi/4.4.3\libgcc.a(libunwind.o)
 .debug_abbrev  0x00005ae3      0x220 d:/android/android-ndk-r8e/toolchains/arm-linux-androideabi-4.4.3/prebuilt/windows/bin/../lib/gcc/arm-linux-androideabi/4.4.3\libgcc.a(pr-support.o)
 .debug_abbrev  0x00005d03      0x18b d:/android/android-ndk-r8e/toolchains/arm-linux-androideabi-4.4.3/prebuilt/windows/bin/../lib/gcc/arm-linux-androideabi/4.4.3\libgcc.a(_divdi3.o)
 .debug_abbrev  0x00005e8e      0x16d d:/android/android-ndk-r8e/toolchains/arm-linux-androideabi-4.4.3/prebuilt/windows/bin/../lib/gcc/arm-linux-androideabi/4.4.3\libgcc.a(_udivdi3.o)

.debug_line     0x00000000     0xe41c
 *(.debug_line)
 .debug_line    0x00000000     0x3b2b D:\oxygine-sound\dependencies\openalext\lib\android\libopenal.a(alBuffer.o)
 .debug_line    0x00003b2b      0x12a D:\oxygine-sound\dependencies\openalext\lib\android\libopenal.a(alError.o)
 .debug_line    0x00003c55      0xbfa D:\oxygine-sound\dependencies\openalext\lib\android\libopenal.a(alSource.o)
 .debug_line    0x0000484f      0x17c D:\oxygine-sound\dependencies\openalext\lib\android\libopenal.a(alThunk.o)
 .debug_line    0x000049cb     0x15e9 D:\oxygine-sound\dependencies\openalext\lib\android\libopenal.a(ALc.o)
 .debug_line    0x00005fb4      0x55c D:\oxygine-sound\dependencies\openalext\lib\android\libopenal.a(alcConfig.o)
 .debug_line    0x00006510      0xb20 D:\oxygine-sound\dependencies\openalext\lib\android\libopenal.a(alcReverb.o)
 .debug_line    0x00007030     0x14fd D:\oxygine-sound\dependencies\openalext\lib\android\libopenal.a(ALu.o)
 .debug_line    0x0000852d      0x121 D:\oxygine-sound\dependencies\openalext\lib\android\libopenal.a(bs2b.o)
 .debug_line    0x0000864e      0x594 D:\oxygine-sound\dependencies\openalext\lib\android\libopenal.a(helpers.o)
 .debug_line    0x00008be2      0x7fc D:\oxygine-sound\dependencies\openalext\lib\android\libopenal.a(hrtf.o)
 .debug_line    0x000093de      0xf79 D:\oxygine-sound\dependencies\openalext\lib\android\libopenal.a(mixer.o)
 .debug_line    0x0000a357      0x3d9 D:\oxygine-sound\dependencies\openalext\lib\android\libopenal.a(panning.o)
 .debug_line    0x0000a730      0x481 D:\oxygine-sound\dependencies\openalext\lib\android\libopenal.a(opensl.o)
 .debug_line    0x0000abb1      0x236 D:\oxygine-sound\dependencies\openalext\lib\android\libopenal.a(null.o)
 .debug_line    0x0000ade7      0x173 D:\oxygine-sound\dependencies\openalext\lib\android\libopenal.a(loopback.o)
 .debug_line    0x0000af5a      0x512 D:\oxygine-sound\dependencies\openalext\lib\android\libopenal.a(alAuxEffectSlot.o)
 .debug_line    0x0000b46c      0x9eb D:\oxygine-sound\dependencies\openalext\lib\android\libopenal.a(alEffect.o)
 .debug_line    0x0000be57      0x28e D:\oxygine-sound\dependencies\openalext\lib\android\libopenal.a(alExtension.o)
 .debug_line    0x0000c0e5      0x468 D:\oxygine-sound\dependencies\openalext\lib\android\libopenal.a(alFilter.o)
 .debug_line    0x0000c54d      0x455 D:\oxygine-sound\dependencies\openalext\lib\android\libopenal.a(alListener.o)
 .debug_line    0x0000c9a2      0x49d D:\oxygine-sound\dependencies\openalext\lib\android\libopenal.a(alState.o)
 .debug_line    0x0000ce3f      0x1be D:\oxygine-sound\dependencies\openalext\lib\android\libopenal.a(alcDedicated.o)
 .debug_line    0x0000cffd      0x318 D:\oxygine-sound\dependencies\openalext\lib\android\libopenal.a(alcEcho.o)
 .debug_line    0x0000d315      0x2e9 D:\oxygine-sound\dependencies\openalext\lib\android\libopenal.a(alcModulator.o)
 .debug_line    0x0000d5fe      0x107 D:\oxygine-sound\dependencies\openalext\lib\android\libopenal.a(alcThread.o)
 .debug_line    0x0000d705       0xaa d:/android/android-ndk-r8e/toolchains/arm-linux-androideabi-4.4.3/prebuilt/windows/bin/../lib/gcc/arm-linux-androideabi/4.4.3\libgcc.a(_udivsi3.o)
 .debug_line    0x0000d7af       0xb6 d:/android/android-ndk-r8e/toolchains/arm-linux-androideabi-4.4.3/prebuilt/windows/bin/../lib/gcc/arm-linux-androideabi/4.4.3\libgcc.a(_divsi3.o)
 .debug_line    0x0000d865       0x83 d:/android/android-ndk-r8e/toolchains/arm-linux-androideabi-4.4.3/prebuilt/windows/bin/../lib/gcc/arm-linux-androideabi/4.4.3\libgcc.a(_aeabi_ldivmod.o)
 .debug_line    0x0000d8e8       0x83 d:/android/android-ndk-r8e/toolchains/arm-linux-androideabi-4.4.3/prebuilt/windows/bin/../lib/gcc/arm-linux-androideabi/4.4.3\libgcc.a(_aeabi_uldivmod.o)
 .debug_line    0x0000d96b       0x89 d:/android/android-ndk-r8e/toolchains/arm-linux-androideabi-4.4.3/prebuilt/windows/bin/../lib/gcc/arm-linux-androideabi/4.4.3\libgcc.a(_dvmd_lnx.o)
 .debug_line    0x0000d9f4       0x89 d:/android/android-ndk-r8e/toolchains/arm-linux-androideabi-4.4.3/prebuilt/windows/bin/../lib/gcc/arm-linux-androideabi/4.4.3\libgcc.a(bpabi.o)
 .debug_line    0x0000da7d      0x4b0 d:/android/android-ndk-r8e/toolchains/arm-linux-androideabi-4.4.3/prebuilt/windows/bin/../lib/gcc/arm-linux-androideabi/4.4.3\libgcc.a(unwind-arm.o)
 .debug_line    0x0000df2d       0xcf d:/android/android-ndk-r8e/toolchains/arm-linux-androideabi-4.4.3/prebuilt/windows/bin/../lib/gcc/arm-linux-androideabi/4.4.3\libgcc.a(libunwind.o)
 .debug_line    0x0000dffc      0x1b0 d:/android/android-ndk-r8e/toolchains/arm-linux-androideabi-4.4.3/prebuilt/windows/bin/../lib/gcc/arm-linux-androideabi/4.4.3\libgcc.a(pr-support.o)
 .debug_line    0x0000e1ac      0x140 d:/android/android-ndk-r8e/toolchains/arm-linux-androideabi-4.4.3/prebuilt/windows/bin/../lib/gcc/arm-linux-androideabi/4.4.3\libgcc.a(_divdi3.o)
 .debug_line    0x0000e2ec      0x130 d:/android/android-ndk-r8e/toolchains/arm-linux-androideabi-4.4.3/prebuilt/windows/bin/../lib/gcc/arm-linux-androideabi/4.4.3\libgcc.a(_udivdi3.o)

.debug_frame    0x00000000     0x3554
 *(.debug_frame)
 .debug_frame   0x00000000      0x8f8 D:\oxygine-sound\dependencies\openalext\lib\android\libopenal.a(alBuffer.o)
 .debug_frame   0x000008f8       0x44 D:\oxygine-sound\dependencies\openalext\lib\android\libopenal.a(alError.o)
 .debug_frame   0x0000093c      0x414 D:\oxygine-sound\dependencies\openalext\lib\android\libopenal.a(alSource.o)
 .debug_frame   0x00000d50       0x7c D:\oxygine-sound\dependencies\openalext\lib\android\libopenal.a(alThunk.o)
 .debug_frame   0x00000dcc      0x534 D:\oxygine-sound\dependencies\openalext\lib\android\libopenal.a(ALc.o)
 .debug_frame   0x00001300      0x134 D:\oxygine-sound\dependencies\openalext\lib\android\libopenal.a(alcConfig.o)
 .debug_frame   0x00001434      0x1c4 D:\oxygine-sound\dependencies\openalext\lib\android\libopenal.a(alcReverb.o)
 .debug_frame   0x000015f8      0x124 D:\oxygine-sound\dependencies\openalext\lib\android\libopenal.a(ALu.o)
 .debug_frame   0x0000171c       0x9c D:\oxygine-sound\dependencies\openalext\lib\android\libopenal.a(bs2b.o)
 .debug_frame   0x000017b8      0x230 D:\oxygine-sound\dependencies\openalext\lib\android\libopenal.a(helpers.o)
 .debug_frame   0x000019e8      0x124 D:\oxygine-sound\dependencies\openalext\lib\android\libopenal.a(hrtf.o)
 .debug_frame   0x00001b0c      0x1f4 D:\oxygine-sound\dependencies\openalext\lib\android\libopenal.a(mixer.o)
 .debug_frame   0x00001d00       0x50 D:\oxygine-sound\dependencies\openalext\lib\android\libopenal.a(panning.o)
 .debug_frame   0x00001d50      0x120 D:\oxygine-sound\dependencies\openalext\lib\android\libopenal.a(opensl.o)
 .debug_frame   0x00001e70       0xf4 D:\oxygine-sound\dependencies\openalext\lib\android\libopenal.a(null.o)
 .debug_frame   0x00001f64       0xac D:\oxygine-sound\dependencies\openalext\lib\android\libopenal.a(loopback.o)
 .debug_frame   0x00002010      0x240 D:\oxygine-sound\dependencies\openalext\lib\android\libopenal.a(alAuxEffectSlot.o)
 .debug_frame   0x00002250      0x56c D:\oxygine-sound\dependencies\openalext\lib\android\libopenal.a(alEffect.o)
 .debug_frame   0x000027bc       0x5c D:\oxygine-sound\dependencies\openalext\lib\android\libopenal.a(alExtension.o)
 .debug_frame   0x00002818      0x2c4 D:\oxygine-sound\dependencies\openalext\lib\android\libopenal.a(alFilter.o)
 .debug_frame   0x00002adc      0x188 D:\oxygine-sound\dependencies\openalext\lib\android\libopenal.a(alListener.o)
 .debug_frame   0x00002c64      0x234 D:\oxygine-sound\dependencies\openalext\lib\android\libopenal.a(alState.o)
 .debug_frame   0x00002e98       0x8c D:\oxygine-sound\dependencies\openalext\lib\android\libopenal.a(alcDedicated.o)
 .debug_frame   0x00002f24       0xac D:\oxygine-sound\dependencies\openalext\lib\android\libopenal.a(alcEcho.o)
 .debug_frame   0x00002fd0       0x98 D:\oxygine-sound\dependencies\openalext\lib\android\libopenal.a(alcModulator.o)
 .debug_frame   0x00003068       0x60 D:\oxygine-sound\dependencies\openalext\lib\android\libopenal.a(alcThread.o)
 .debug_frame   0x000030c8       0x28 d:/android/android-ndk-r8e/toolchains/arm-linux-androideabi-4.4.3/prebuilt/windows/bin/../lib/gcc/arm-linux-androideabi/4.4.3\libgcc.a(_udivsi3.o)
 .debug_frame   0x000030f0       0x28 d:/android/android-ndk-r8e/toolchains/arm-linux-androideabi-4.4.3/prebuilt/windows/bin/../lib/gcc/arm-linux-androideabi/4.4.3\libgcc.a(_divsi3.o)
 .debug_frame   0x00003118       0x60 d:/android/android-ndk-r8e/toolchains/arm-linux-androideabi-4.4.3/prebuilt/windows/bin/../lib/gcc/arm-linux-androideabi/4.4.3\libgcc.a(bpabi.o)
 .debug_frame   0x00003178      0x248 d:/android/android-ndk-r8e/toolchains/arm-linux-androideabi-4.4.3/prebuilt/windows/bin/../lib/gcc/arm-linux-androideabi/4.4.3\libgcc.a(unwind-arm.o)
 .debug_frame   0x000033c0      0x108 d:/android/android-ndk-r8e/toolchains/arm-linux-androideabi-4.4.3/prebuilt/windows/bin/../lib/gcc/arm-linux-androideabi/4.4.3\libgcc.a(pr-support.o)
 .debug_frame   0x000034c8       0x44 d:/android/android-ndk-r8e/toolchains/arm-linux-androideabi-4.4.3/prebuilt/windows/bin/../lib/gcc/arm-linux-androideabi/4.4.3\libgcc.a(_divdi3.o)
 .debug_frame   0x0000350c       0x48 d:/android/android-ndk-r8e/toolchains/arm-linux-androideabi-4.4.3/prebuilt/windows/bin/../lib/gcc/arm-linux-androideabi/4.4.3\libgcc.a(_udivdi3.o)

.debug_str      0x00000000     0x6efe
 *(.debug_str)
 .debug_str     0x00000000     0x28a1 D:\oxygine-sound\dependencies\openalext\lib\android\libopenal.a(alBuffer.o)
                               0x2b6a (size before relaxing)
 .debug_str     0x000028a1       0x5f D:\oxygine-sound\dependencies\openalext\lib\android\libopenal.a(alError.o)
                                0x835 (size before relaxing)
 .debug_str     0x00002900      0x699 D:\oxygine-sound\dependencies\openalext\lib\android\libopenal.a(alSource.o)
                               0x1391 (size before relaxing)
 .debug_str     0x00002f99       0xb2 D:\oxygine-sound\dependencies\openalext\lib\android\libopenal.a(alThunk.o)
                                0x29a (size before relaxing)
 .debug_str     0x0000304b      0x97b D:\oxygine-sound\dependencies\openalext\lib\android\libopenal.a(ALc.o)
                               0x1a31 (size before relaxing)
 .debug_str     0x000039c6      0x128 D:\oxygine-sound\dependencies\openalext\lib\android\libopenal.a(alcConfig.o)
                                0x3b8 (size before relaxing)
 .debug_str     0x00003aee      0x57c D:\oxygine-sound\dependencies\openalext\lib\android\libopenal.a(alcReverb.o)
                               0x110e (size before relaxing)
 .debug_str     0x0000406a      0x589 D:\oxygine-sound\dependencies\openalext\lib\android\libopenal.a(ALu.o)
                               0x1680 (size before relaxing)
 .debug_str     0x000045f3       0x7a D:\oxygine-sound\dependencies\openalext\lib\android\libopenal.a(bs2b.o)
                                0x1b4 (size before relaxing)
 .debug_str     0x0000466d      0x28a D:\oxygine-sound\dependencies\openalext\lib\android\libopenal.a(helpers.o)
                                0x5a1 (size before relaxing)
 .debug_str     0x000048f7      0x1a2 D:\oxygine-sound\dependencies\openalext\lib\android\libopenal.a(hrtf.o)
                                0xe00 (size before relaxing)
 .debug_str     0x00004a99      0x27a D:\oxygine-sound\dependencies\openalext\lib\android\libopenal.a(mixer.o)
                               0x12e9 (size before relaxing)
 .debug_str     0x00004d13       0x9b D:\oxygine-sound\dependencies\openalext\lib\android\libopenal.a(panning.o)
                                0x8e0 (size before relaxing)
 .debug_str     0x00004dae      0x76b D:\oxygine-sound\dependencies\openalext\lib\android\libopenal.a(opensl.o)
                               0x1005 (size before relaxing)
 .debug_str     0x00005519       0xec D:\oxygine-sound\dependencies\openalext\lib\android\libopenal.a(null.o)
                                0x92b (size before relaxing)
 .debug_str     0x00005605       0xd8 D:\oxygine-sound\dependencies\openalext\lib\android\libopenal.a(loopback.o)
                                0x8ea (size before relaxing)
 .debug_str     0x000056dd      0x217 D:\oxygine-sound\dependencies\openalext\lib\android\libopenal.a(alAuxEffectSlot.o)
                               0x102b (size before relaxing)
 .debug_str     0x000058f4      0x4f6 D:\oxygine-sound\dependencies\openalext\lib\android\libopenal.a(alEffect.o)
                               0x1065 (size before relaxing)
 .debug_str     0x00005dea       0x63 D:\oxygine-sound\dependencies\openalext\lib\android\libopenal.a(alExtension.o)
                                0xff2 (size before relaxing)
 .debug_str     0x00005e4d      0x140 D:\oxygine-sound\dependencies\openalext\lib\android\libopenal.a(alFilter.o)
                                0xa63 (size before relaxing)
 .debug_str     0x00005f8d       0xdc D:\oxygine-sound\dependencies\openalext\lib\android\libopenal.a(alListener.o)
                                0xcfd (size before relaxing)
 .debug_str     0x00006069      0x19c D:\oxygine-sound\dependencies\openalext\lib\android\libopenal.a(alState.o)
                                0xfb0 (size before relaxing)
 .debug_str     0x00006205       0x84 D:\oxygine-sound\dependencies\openalext\lib\android\libopenal.a(alcDedicated.o)
                                0xae2 (size before relaxing)
 .debug_str     0x00006289       0x8d D:\oxygine-sound\dependencies\openalext\lib\android\libopenal.a(alcEcho.o)
                                0xb97 (size before relaxing)
 .debug_str     0x00006316       0xcb D:\oxygine-sound\dependencies\openalext\lib\android\libopenal.a(alcModulator.o)
                                0xb6e (size before relaxing)
 .debug_str     0x000063e1       0x4a D:\oxygine-sound\dependencies\openalext\lib\android\libopenal.a(alcThread.o)
                                0x16b (size before relaxing)
 .debug_str     0x0000642b       0x97 d:/android/android-ndk-r8e/toolchains/arm-linux-androideabi-4.4.3/prebuilt/windows/bin/../lib/gcc/arm-linux-androideabi/4.4.3\libgcc.a(bpabi.o)
                                 0xbc (size before relaxing)
 .debug_str     0x000064c2      0x7f2 d:/android/android-ndk-r8e/toolchains/arm-linux-androideabi-4.4.3/prebuilt/windows/bin/../lib/gcc/arm-linux-androideabi/4.4.3\libgcc.a(unwind-arm.o)
                                0x8d2 (size before relaxing)
 .debug_str     0x00006cb4      0x11b d:/android/android-ndk-r8e/toolchains/arm-linux-androideabi-4.4.3/prebuilt/windows/bin/../lib/gcc/arm-linux-androideabi/4.4.3\libgcc.a(pr-support.o)
                                0x438 (size before relaxing)
 .debug_str     0x00006dcf      0x125 d:/android/android-ndk-r8e/toolchains/arm-linux-androideabi-4.4.3/prebuilt/windows/bin/../lib/gcc/arm-linux-androideabi/4.4.3\libgcc.a(_divdi3.o)
                                0x1f3 (size before relaxing)
 .debug_str     0x00006ef4        0xa d:/android/android-ndk-r8e/toolchains/arm-linux-androideabi-4.4.3/prebuilt/windows/bin/../lib/gcc/arm-linux-androideabi/4.4.3\libgcc.a(_udivdi3.o)
                                0x1f4 (size before relaxing)

.debug_loc      0x00000000    0x27643
 *(.debug_loc)
 .debug_loc     0x00000000     0xe48b D:\oxygine-sound\dependencies\openalext\lib\android\libopenal.a(alBuffer.o)
 .debug_loc     0x0000e48b       0xda D:\oxygine-sound\dependencies\openalext\lib\android\libopenal.a(alError.o)
 .debug_loc     0x0000e565     0x2118 D:\oxygine-sound\dependencies\openalext\lib\android\libopenal.a(alSource.o)
 .debug_loc     0x0001067d      0x1c4 D:\oxygine-sound\dependencies\openalext\lib\android\libopenal.a(alThunk.o)
 .debug_loc     0x00010841     0x25bc D:\oxygine-sound\dependencies\openalext\lib\android\libopenal.a(ALc.o)
 .debug_loc     0x00012dfd      0x7f7 D:\oxygine-sound\dependencies\openalext\lib\android\libopenal.a(alcConfig.o)
 .debug_loc     0x000135f4     0x220b D:\oxygine-sound\dependencies\openalext\lib\android\libopenal.a(alcReverb.o)
 .debug_loc     0x000157ff     0x2bac D:\oxygine-sound\dependencies\openalext\lib\android\libopenal.a(ALu.o)
 .debug_loc     0x000183ab      0x2e4 D:\oxygine-sound\dependencies\openalext\lib\android\libopenal.a(bs2b.o)
 .debug_loc     0x0001868f      0x851 D:\oxygine-sound\dependencies\openalext\lib\android\libopenal.a(helpers.o)
 .debug_loc     0x00018ee0      0xfdd D:\oxygine-sound\dependencies\openalext\lib\android\libopenal.a(hrtf.o)
 .debug_loc     0x00019ebd     0x3bb6 D:\oxygine-sound\dependencies\openalext\lib\android\libopenal.a(mixer.o)
 .debug_loc     0x0001da73      0x5a0 D:\oxygine-sound\dependencies\openalext\lib\android\libopenal.a(panning.o)
 .debug_loc     0x0001e013      0x679 D:\oxygine-sound\dependencies\openalext\lib\android\libopenal.a(opensl.o)
 .debug_loc     0x0001e68c      0x399 D:\oxygine-sound\dependencies\openalext\lib\android\libopenal.a(null.o)
 .debug_loc     0x0001ea25       0xef D:\oxygine-sound\dependencies\openalext\lib\android\libopenal.a(loopback.o)
 .debug_loc     0x0001eb14      0xe1d D:\oxygine-sound\dependencies\openalext\lib\android\libopenal.a(alAuxEffectSlot.o)
 .debug_loc     0x0001f931     0x2313 D:\oxygine-sound\dependencies\openalext\lib\android\libopenal.a(alEffect.o)
 .debug_loc     0x00021c44      0x1a6 D:\oxygine-sound\dependencies\openalext\lib\android\libopenal.a(alExtension.o)
 .debug_loc     0x00021dea     0x11d8 D:\oxygine-sound\dependencies\openalext\lib\android\libopenal.a(alFilter.o)
 .debug_loc     0x00022fc2      0x9ca D:\oxygine-sound\dependencies\openalext\lib\android\libopenal.a(alListener.o)
 .debug_loc     0x0002398c      0xc57 D:\oxygine-sound\dependencies\openalext\lib\android\libopenal.a(alState.o)
 .debug_loc     0x000245e3      0x1dc D:\oxygine-sound\dependencies\openalext\lib\android\libopenal.a(alcDedicated.o)
 .debug_loc     0x000247bf      0x571 D:\oxygine-sound\dependencies\openalext\lib\android\libopenal.a(alcEcho.o)
 .debug_loc     0x00024d30      0x6db D:\oxygine-sound\dependencies\openalext\lib\android\libopenal.a(alcModulator.o)
 .debug_loc     0x0002540b      0x12b D:\oxygine-sound\dependencies\openalext\lib\android\libopenal.a(alcThread.o)
 .debug_loc     0x00025536      0x120 d:/android/android-ndk-r8e/toolchains/arm-linux-androideabi-4.4.3/prebuilt/windows/bin/../lib/gcc/arm-linux-androideabi/4.4.3\libgcc.a(bpabi.o)
 .debug_loc     0x00025656      0xfef d:/android/android-ndk-r8e/toolchains/arm-linux-androideabi-4.4.3/prebuilt/windows/bin/../lib/gcc/arm-linux-androideabi/4.4.3\libgcc.a(unwind-arm.o)
 .debug_loc     0x00026645      0x2f9 d:/android/android-ndk-r8e/toolchains/arm-linux-androideabi-4.4.3/prebuilt/windows/bin/../lib/gcc/arm-linux-androideabi/4.4.3\libgcc.a(pr-support.o)
 .debug_loc     0x0002693e      0x6cf d:/android/android-ndk-r8e/toolchains/arm-linux-androideabi-4.4.3/prebuilt/windows/bin/../lib/gcc/arm-linux-androideabi/4.4.3\libgcc.a(_divdi3.o)
 .debug_loc     0x0002700d      0x636 d:/android/android-ndk-r8e/toolchains/arm-linux-androideabi-4.4.3/prebuilt/windows/bin/../lib/gcc/arm-linux-androideabi/4.4.3\libgcc.a(_udivdi3.o)

.debug_macinfo
 *(.debug_macinfo)

.debug_weaknames
 *(.debug_weaknames)

.debug_funcnames
 *(.debug_funcnames)

.debug_typenames
 *(.debug_typenames)

.debug_varnames
 *(.debug_varnames)

.debug_pubtypes
                0x00000000     0x9640
 *(.debug_pubtypes)
 .debug_pubtypes
                0x00000000      0x7d7 D:\oxygine-sound\dependencies\openalext\lib\android\libopenal.a(alBuffer.o)
 .debug_pubtypes
                0x000007d7      0x511 D:\oxygine-sound\dependencies\openalext\lib\android\libopenal.a(alError.o)
 .debug_pubtypes
                0x00000ce8      0x880 D:\oxygine-sound\dependencies\openalext\lib\android\libopenal.a(alSource.o)
 .debug_pubtypes
                0x00001568      0x203 D:\oxygine-sound\dependencies\openalext\lib\android\libopenal.a(alThunk.o)
 .debug_pubtypes
                0x0000176b      0x9f8 D:\oxygine-sound\dependencies\openalext\lib\android\libopenal.a(ALc.o)
 .debug_pubtypes
                0x00002163      0x268 D:\oxygine-sound\dependencies\openalext\lib\android\libopenal.a(alcConfig.o)
 .debug_pubtypes
                0x000023cb      0x654 D:\oxygine-sound\dependencies\openalext\lib\android\libopenal.a(alcReverb.o)
 .debug_pubtypes
                0x00002a1f      0x898 D:\oxygine-sound\dependencies\openalext\lib\android\libopenal.a(ALu.o)
 .debug_pubtypes
                0x000032b7       0xfb D:\oxygine-sound\dependencies\openalext\lib\android\libopenal.a(bs2b.o)
 .debug_pubtypes
                0x000033b2      0x29e D:\oxygine-sound\dependencies\openalext\lib\android\libopenal.a(helpers.o)
 .debug_pubtypes
                0x00003650      0x684 D:\oxygine-sound\dependencies\openalext\lib\android\libopenal.a(hrtf.o)
 .debug_pubtypes
                0x00003cd4      0x8a5 D:\oxygine-sound\dependencies\openalext\lib\android\libopenal.a(mixer.o)
 .debug_pubtypes
                0x00004579      0x566 D:\oxygine-sound\dependencies\openalext\lib\android\libopenal.a(panning.o)
 .debug_pubtypes
                0x00004adf      0x8ec D:\oxygine-sound\dependencies\openalext\lib\android\libopenal.a(opensl.o)
 .debug_pubtypes
                0x000053cb      0x583 D:\oxygine-sound\dependencies\openalext\lib\android\libopenal.a(null.o)
 .debug_pubtypes
                0x0000594e      0x54c D:\oxygine-sound\dependencies\openalext\lib\android\libopenal.a(loopback.o)
 .debug_pubtypes
                0x00005e9a      0x630 D:\oxygine-sound\dependencies\openalext\lib\android\libopenal.a(alAuxEffectSlot.o)
 .debug_pubtypes
                0x000064ca      0x5aa D:\oxygine-sound\dependencies\openalext\lib\android\libopenal.a(alEffect.o)
 .debug_pubtypes
                0x00006a74      0x870 D:\oxygine-sound\dependencies\openalext\lib\android\libopenal.a(alExtension.o)
 .debug_pubtypes
                0x000072e4      0x535 D:\oxygine-sound\dependencies\openalext\lib\android\libopenal.a(alFilter.o)
 .debug_pubtypes
                0x00007819      0x5c4 D:\oxygine-sound\dependencies\openalext\lib\android\libopenal.a(alListener.o)
 .debug_pubtypes
                0x00007ddd      0x649 D:\oxygine-sound\dependencies\openalext\lib\android\libopenal.a(alState.o)
 .debug_pubtypes
                0x00008426      0x5a5 D:\oxygine-sound\dependencies\openalext\lib\android\libopenal.a(alcDedicated.o)
 .debug_pubtypes
                0x000089cb      0x5a6 D:\oxygine-sound\dependencies\openalext\lib\android\libopenal.a(alcEcho.o)
 .debug_pubtypes
                0x00008f71      0x5b0 D:\oxygine-sound\dependencies\openalext\lib\android\libopenal.a(alcModulator.o)
 .debug_pubtypes
                0x00009521      0x11f D:\oxygine-sound\dependencies\openalext\lib\android\libopenal.a(alcThread.o)

.debug_ranges   0x00000000     0x68c8
 *(.debug_ranges)
 .debug_ranges  0x00000000     0x2300 D:\oxygine-sound\dependencies\openalext\lib\android\libopenal.a(alBuffer.o)
 .debug_ranges  0x00002300       0x18 D:\oxygine-sound\dependencies\openalext\lib\android\libopenal.a(alError.o)
 .debug_ranges  0x00002318      0x340 D:\oxygine-sound\dependencies\openalext\lib\android\libopenal.a(alSource.o)
 .debug_ranges  0x00002658       0x58 D:\oxygine-sound\dependencies\openalext\lib\android\libopenal.a(alThunk.o)
 .debug_ranges  0x000026b0      0x688 D:\oxygine-sound\dependencies\openalext\lib\android\libopenal.a(ALc.o)
 .debug_ranges  0x00002d38      0x138 D:\oxygine-sound\dependencies\openalext\lib\android\libopenal.a(alcConfig.o)
 .debug_ranges  0x00002e70      0xa58 D:\oxygine-sound\dependencies\openalext\lib\android\libopenal.a(alcReverb.o)
 .debug_ranges  0x000038c8     0x1240 D:\oxygine-sound\dependencies\openalext\lib\android\libopenal.a(ALu.o)
 .debug_ranges  0x00004b08       0x40 D:\oxygine-sound\dependencies\openalext\lib\android\libopenal.a(bs2b.o)
 .debug_ranges  0x00004b48      0x130 D:\oxygine-sound\dependencies\openalext\lib\android\libopenal.a(helpers.o)
 .debug_ranges  0x00004c78      0x410 D:\oxygine-sound\dependencies\openalext\lib\android\libopenal.a(hrtf.o)
 .debug_ranges  0x00005088      0x690 D:\oxygine-sound\dependencies\openalext\lib\android\libopenal.a(mixer.o)
 .debug_ranges  0x00005718       0xf0 D:\oxygine-sound\dependencies\openalext\lib\android\libopenal.a(panning.o)
 .debug_ranges  0x00005808       0x90 D:\oxygine-sound\dependencies\openalext\lib\android\libopenal.a(opensl.o)
 .debug_ranges  0x00005898       0x50 D:\oxygine-sound\dependencies\openalext\lib\android\libopenal.a(null.o)
 .debug_ranges  0x000058e8       0x48 D:\oxygine-sound\dependencies\openalext\lib\android\libopenal.a(loopback.o)
 .debug_ranges  0x00005930      0x248 D:\oxygine-sound\dependencies\openalext\lib\android\libopenal.a(alAuxEffectSlot.o)
 .debug_ranges  0x00005b78      0x368 D:\oxygine-sound\dependencies\openalext\lib\android\libopenal.a(alEffect.o)
 .debug_ranges  0x00005ee0       0x20 D:\oxygine-sound\dependencies\openalext\lib\android\libopenal.a(alExtension.o)
 .debug_ranges  0x00005f00      0x168 D:\oxygine-sound\dependencies\openalext\lib\android\libopenal.a(alFilter.o)
 .debug_ranges  0x00006068      0x110 D:\oxygine-sound\dependencies\openalext\lib\android\libopenal.a(alListener.o)
 .debug_ranges  0x00006178      0x140 D:\oxygine-sound\dependencies\openalext\lib\android\libopenal.a(alState.o)
 .debug_ranges  0x000062b8       0x30 D:\oxygine-sound\dependencies\openalext\lib\android\libopenal.a(alcDedicated.o)
 .debug_ranges  0x000062e8      0x110 D:\oxygine-sound\dependencies\openalext\lib\android\libopenal.a(alcEcho.o)
 .debug_ranges  0x000063f8      0x160 D:\oxygine-sound\dependencies\openalext\lib\android\libopenal.a(alcModulator.o)
 .debug_ranges  0x00006558       0x20 D:\oxygine-sound\dependencies\openalext\lib\android\libopenal.a(alcThread.o)
 .debug_ranges  0x00006578      0x1f8 d:/android/android-ndk-r8e/toolchains/arm-linux-androideabi-4.4.3/prebuilt/windows/bin/../lib/gcc/arm-linux-androideabi/4.4.3\libgcc.a(unwind-arm.o)
 .debug_ranges  0x00006770       0x30 d:/android/android-ndk-r8e/toolchains/arm-linux-androideabi-4.4.3/prebuilt/windows/bin/../lib/gcc/arm-linux-androideabi/4.4.3\libgcc.a(pr-support.o)
 .debug_ranges  0x000067a0       0xa0 d:/android/android-ndk-r8e/toolchains/arm-linux-androideabi-4.4.3/prebuilt/windows/bin/../lib/gcc/arm-linux-androideabi/4.4.3\libgcc.a(_divdi3.o)
 .debug_ranges  0x00006840       0x88 d:/android/android-ndk-r8e/toolchains/arm-linux-androideabi-4.4.3/prebuilt/windows/bin/../lib/gcc/arm-linux-androideabi/4.4.3\libgcc.a(_udivdi3.o)

.gnu.attributes
 *(.gnu.attributes)

.note.gnu.arm.ident
 *(.note.gnu.arm.ident)

/DISCARD/
 *(.note.GNU-stack)
 *(.gnu_debuglink)
OUTPUT(D:\oxygine-sound\dependencies\openalext\lib\android\libopenalext.so elf32-littlearm)

.ARM.attributes
                0x00000000       0x33
 .ARM.attributes
                0x00000000       0x2d d:/android/android-ndk-r8e/platforms/android-9/arch-arm/usr/lib/crtbegin_so.o
 .ARM.attributes
                0x0000002d       0x2b release\openalext_platform.os
 .ARM.attributes
                0x00000058       0x2b release\openalext.os
 .ARM.attributes
                0x00000083       0x2b release\openalext_register.os
 .ARM.attributes
                0x000000ae       0x33 D:\oxygine-sound\dependencies\openalext\lib\android\libopenal.a(alBuffer.o)
 .ARM.attributes
                0x000000e1       0x33 D:\oxygine-sound\dependencies\openalext\lib\android\libopenal.a(alError.o)
 .ARM.attributes
                0x00000114       0x33 D:\oxygine-sound\dependencies\openalext\lib\android\libopenal.a(alSource.o)
 .ARM.attributes
                0x00000147       0x33 D:\oxygine-sound\dependencies\openalext\lib\android\libopenal.a(alThunk.o)
 .ARM.attributes
                0x0000017a       0x33 D:\oxygine-sound\dependencies\openalext\lib\android\libopenal.a(ALc.o)
 .ARM.attributes
                0x000001ad       0x33 D:\oxygine-sound\dependencies\openalext\lib\android\libopenal.a(alcConfig.o)
 .ARM.attributes
                0x000001e0       0x33 D:\oxygine-sound\dependencies\openalext\lib\android\libopenal.a(alcReverb.o)
 .ARM.attributes
                0x00000213       0x33 D:\oxygine-sound\dependencies\openalext\lib\android\libopenal.a(ALu.o)
 .ARM.attributes
                0x00000246       0x33 D:\oxygine-sound\dependencies\openalext\lib\android\libopenal.a(bs2b.o)
 .ARM.attributes
                0x00000279       0x33 D:\oxygine-sound\dependencies\openalext\lib\android\libopenal.a(helpers.o)
 .ARM.attributes
                0x000002ac       0x33 D:\oxygine-sound\dependencies\openalext\lib\android\libopenal.a(hrtf.o)
 .ARM.attributes
                0x000002df       0x33 D:\oxygine-sound\dependencies\openalext\lib\android\libopenal.a(mixer.o)
 .ARM.attributes
                0x00000312       0x33 D:\oxygine-sound\dependencies\openalext\lib\android\libopenal.a(panning.o)
 .ARM.attributes
                0x00000345       0x33 D:\oxygine-sound\dependencies\openalext\lib\android\libopenal.a(opensl.o)
 .ARM.attributes
                0x00000378       0x33 D:\oxygine-sound\dependencies\openalext\lib\android\libopenal.a(null.o)
 .ARM.attributes
                0x000003ab       0x33 D:\oxygine-sound\dependencies\openalext\lib\android\libopenal.a(loopback.o)
 .ARM.attributes
                0x000003de       0x33 D:\oxygine-sound\dependencies\openalext\lib\android\libopenal.a(alAuxEffectSlot.o)
 .ARM.attributes
                0x00000411       0x33 D:\oxygine-sound\dependencies\openalext\lib\android\libopenal.a(alEffect.o)
 .ARM.attributes
                0x00000444       0x33 D:\oxygine-sound\dependencies\openalext\lib\android\libopenal.a(alExtension.o)
 .ARM.attributes
                0x00000477       0x33 D:\oxygine-sound\dependencies\openalext\lib\android\libopenal.a(alFilter.o)
 .ARM.attributes
                0x000004aa       0x33 D:\oxygine-sound\dependencies\openalext\lib\android\libopenal.a(alListener.o)
 .ARM.attributes
                0x000004dd       0x33 D:\oxygine-sound\dependencies\openalext\lib\android\libopenal.a(alState.o)
 .ARM.attributes
                0x00000510       0x33 D:\oxygine-sound\dependencies\openalext\lib\android\libopenal.a(alcDedicated.o)
 .ARM.attributes
                0x00000543       0x33 D:\oxygine-sound\dependencies\openalext\lib\android\libopenal.a(alcEcho.o)
 .ARM.attributes
                0x00000576       0x33 D:\oxygine-sound\dependencies\openalext\lib\android\libopenal.a(alcModulator.o)
 .ARM.attributes
                0x000005a9       0x33 D:\oxygine-sound\dependencies\openalext\lib\android\libopenal.a(alcThread.o)
 .ARM.attributes
                0x000005dc       0x19 d:/android/android-ndk-r8e/toolchains/arm-linux-androideabi-4.4.3/prebuilt/windows/bin/../lib/gcc/arm-linux-androideabi/4.4.3\libgcc.a(_udivsi3.o)
 .ARM.attributes
                0x000005f5       0x19 d:/android/android-ndk-r8e/toolchains/arm-linux-androideabi-4.4.3/prebuilt/windows/bin/../lib/gcc/arm-linux-androideabi/4.4.3\libgcc.a(_divsi3.o)
 .ARM.attributes
                0x0000060e       0x19 d:/android/android-ndk-r8e/toolchains/arm-linux-androideabi-4.4.3/prebuilt/windows/bin/../lib/gcc/arm-linux-androideabi/4.4.3\libgcc.a(_aeabi_ldivmod.o)
 .ARM.attributes
                0x00000627       0x19 d:/android/android-ndk-r8e/toolchains/arm-linux-androideabi-4.4.3/prebuilt/windows/bin/../lib/gcc/arm-linux-androideabi/4.4.3\libgcc.a(_aeabi_uldivmod.o)
 .ARM.attributes
                0x00000640       0x19 d:/android/android-ndk-r8e/toolchains/arm-linux-androideabi-4.4.3/prebuilt/windows/bin/../lib/gcc/arm-linux-androideabi/4.4.3\libgcc.a(_dvmd_lnx.o)
 .ARM.attributes
                0x00000659       0x29 d:/android/android-ndk-r8e/toolchains/arm-linux-androideabi-4.4.3/prebuilt/windows/bin/../lib/gcc/arm-linux-androideabi/4.4.3\libgcc.a(bpabi.o)
 .ARM.attributes
                0x00000682       0x29 d:/android/android-ndk-r8e/toolchains/arm-linux-androideabi-4.4.3/prebuilt/windows/bin/../lib/gcc/arm-linux-androideabi/4.4.3\libgcc.a(unwind-arm.o)
 .ARM.attributes
                0x000006ab       0x19 d:/android/android-ndk-r8e/toolchains/arm-linux-androideabi-4.4.3/prebuilt/windows/bin/../lib/gcc/arm-linux-androideabi/4.4.3\libgcc.a(libunwind.o)
 .ARM.attributes
                0x000006c4       0x29 d:/android/android-ndk-r8e/toolchains/arm-linux-androideabi-4.4.3/prebuilt/windows/bin/../lib/gcc/arm-linux-androideabi/4.4.3\libgcc.a(pr-support.o)
 .ARM.attributes
                0x000006ed       0x29 d:/android/android-ndk-r8e/toolchains/arm-linux-androideabi-4.4.3/prebuilt/windows/bin/../lib/gcc/arm-linux-androideabi/4.4.3\libgcc.a(_divdi3.o)
 .ARM.attributes
                0x00000716       0x29 d:/android/android-ndk-r8e/toolchains/arm-linux-androideabi-4.4.3/prebuilt/windows/bin/../lib/gcc/arm-linux-androideabi/4.4.3\libgcc.a(_udivdi3.o)
 .ARM.attributes
                0x0000073f       0x1f d:/android/android-ndk-r8e/platforms/android-9/arch-arm/usr/lib/crtend_so.o
